ARM Linker, 4.1 [Build 644] [Standard]

==============================================================================

Section Cross References

    startup_stm32f10x_md.o(STACK) refers (Special) to heapauxi.o(.text) for __use_two_region_memory
    startup_stm32f10x_md.o(HEAP) refers (Special) to heapauxi.o(.text) for __use_two_region_memory
    startup_stm32f10x_md.o(RESET) refers (Special) to heapauxi.o(.text) for __use_two_region_memory
    startup_stm32f10x_md.o(RESET) refers to startup_stm32f10x_md.o(STACK) for __initial_sp
    startup_stm32f10x_md.o(RESET) refers to startup_stm32f10x_md.o(.text) for Reset_Handler
    startup_stm32f10x_md.o(RESET) refers to stm32f10x_it.o(i.NMI_Handler) for NMI_Handler
    startup_stm32f10x_md.o(RESET) refers to stm32f10x_it.o(i.HardFault_Handler) for HardFault_Handler
    startup_stm32f10x_md.o(RESET) refers to stm32f10x_it.o(i.MemManage_Handler) for MemManage_Handler
    startup_stm32f10x_md.o(RESET) refers to stm32f10x_it.o(i.BusFault_Handler) for BusFault_Handler
    startup_stm32f10x_md.o(RESET) refers to stm32f10x_it.o(i.UsageFault_Handler) for UsageFault_Handler
    startup_stm32f10x_md.o(RESET) refers to hal_cm3.o(.emb_text) for SVC_Handler
    startup_stm32f10x_md.o(RESET) refers to stm32f10x_it.o(i.DebugMon_Handler) for DebugMon_Handler
    startup_stm32f10x_md.o(RESET) refers to stm32f10x_it.o(i.RTC_IRQHandler) for RTC_IRQHandler
    startup_stm32f10x_md.o(RESET) refers to stm32f10x_it.o(i.TIM3_IRQHandler) for TIM3_IRQHandler
    startup_stm32f10x_md.o(RESET) refers to stm32f10x_it.o(i.USART1_IRQHandler) for USART1_IRQHandler
    startup_stm32f10x_md.o(RESET) refers to stm32f10x_it.o(i.USART2_IRQHandler) for USART2_IRQHandler
    startup_stm32f10x_md.o(.text) refers (Special) to heapauxi.o(.text) for __use_two_region_memory
    startup_stm32f10x_md.o(.text) refers to system_stm32f10x.o(i.SystemInit) for SystemInit
    startup_stm32f10x_md.o(.text) refers to __main.o(!!!main) for __main
    startup_stm32f10x_md.o(.text) refers to startup_stm32f10x_md.o(HEAP) for Heap_Mem
    startup_stm32f10x_md.o(.text) refers to startup_stm32f10x_md.o(STACK) for Stack_Mem
    system_stm32f10x.o(i.SystemCoreClockUpdate) refers to system_stm32f10x.o(.data) for .data
    system_stm32f10x.o(i.SystemInit) refers to system_stm32f10x.o(i.SetSysClockTo72) for SetSysClockTo72
    stm32f10x_gpio.o(i.GPIO_AFIODeInit) refers to stm32f10x_rcc.o(i.RCC_APB2PeriphResetCmd) for RCC_APB2PeriphResetCmd
    stm32f10x_gpio.o(i.GPIO_DeInit) refers to stm32f10x_rcc.o(i.RCC_APB2PeriphResetCmd) for RCC_APB2PeriphResetCmd
    stm32f10x_rcc.o(i.RCC_GetClocksFreq) refers to stm32f10x_rcc.o(.data) for .data
    stm32f10x_rcc.o(i.RCC_WaitForHSEStartUp) refers to stm32f10x_rcc.o(i.RCC_GetFlagStatus) for RCC_GetFlagStatus
    stm32f10x_tim.o(i.TIM_DeInit) refers to stm32f10x_rcc.o(i.RCC_APB1PeriphResetCmd) for RCC_APB1PeriphResetCmd
    stm32f10x_tim.o(i.TIM_DeInit) refers to stm32f10x_rcc.o(i.RCC_APB2PeriphResetCmd) for RCC_APB2PeriphResetCmd
    stm32f10x_tim.o(i.TIM_ETRClockMode1Config) refers to stm32f10x_tim.o(i.TIM_ETRConfig) for TIM_ETRConfig
    stm32f10x_tim.o(i.TIM_ETRClockMode2Config) refers to stm32f10x_tim.o(i.TIM_ETRConfig) for TIM_ETRConfig
    stm32f10x_tim.o(i.TIM_ICInit) refers to stm32f10x_tim.o(i.TI1_Config) for TI1_Config
    stm32f10x_tim.o(i.TIM_ICInit) refers to stm32f10x_tim.o(i.TIM_SetIC1Prescaler) for TIM_SetIC1Prescaler
    stm32f10x_tim.o(i.TIM_ICInit) refers to stm32f10x_tim.o(i.TI2_Config) for TI2_Config
    stm32f10x_tim.o(i.TIM_ICInit) refers to stm32f10x_tim.o(i.TIM_SetIC2Prescaler) for TIM_SetIC2Prescaler
    stm32f10x_tim.o(i.TIM_ICInit) refers to stm32f10x_tim.o(i.TIM_SetIC3Prescaler) for TIM_SetIC3Prescaler
    stm32f10x_tim.o(i.TIM_ICInit) refers to stm32f10x_tim.o(i.TIM_SetIC4Prescaler) for TIM_SetIC4Prescaler
    stm32f10x_tim.o(i.TIM_ITRxExternalClockConfig) refers to stm32f10x_tim.o(i.TIM_SelectInputTrigger) for TIM_SelectInputTrigger
    stm32f10x_tim.o(i.TIM_PWMIConfig) refers to stm32f10x_tim.o(i.TI2_Config) for TI2_Config
    stm32f10x_tim.o(i.TIM_PWMIConfig) refers to stm32f10x_tim.o(i.TIM_SetIC2Prescaler) for TIM_SetIC2Prescaler
    stm32f10x_tim.o(i.TIM_PWMIConfig) refers to stm32f10x_tim.o(i.TI1_Config) for TI1_Config
    stm32f10x_tim.o(i.TIM_PWMIConfig) refers to stm32f10x_tim.o(i.TIM_SetIC1Prescaler) for TIM_SetIC1Prescaler
    stm32f10x_tim.o(i.TIM_TIxExternalClockConfig) refers to stm32f10x_tim.o(i.TI1_Config) for TI1_Config
    stm32f10x_tim.o(i.TIM_TIxExternalClockConfig) refers to stm32f10x_tim.o(i.TIM_SelectInputTrigger) for TIM_SelectInputTrigger
    stm32f10x_tim.o(i.TIM_TIxExternalClockConfig) refers to stm32f10x_tim.o(i.TI2_Config) for TI2_Config
    stm32f10x_usart.o(i.USART_DeInit) refers to stm32f10x_rcc.o(i.RCC_APB2PeriphResetCmd) for RCC_APB2PeriphResetCmd
    stm32f10x_usart.o(i.USART_DeInit) refers to stm32f10x_rcc.o(i.RCC_APB1PeriphResetCmd) for RCC_APB1PeriphResetCmd
    stm32f10x_usart.o(i.USART_Init) refers to stm32f10x_rcc.o(i.RCC_GetClocksFreq) for RCC_GetClocksFreq
    stm32f10x_pwr.o(i.PWR_DeInit) refers to stm32f10x_rcc.o(i.RCC_APB1PeriphResetCmd) for RCC_APB1PeriphResetCmd
    stm32f10x_rtc.o(i.RTC_SetAlarm) refers to stm32f10x_rtc.o(i.RTC_EnterConfigMode) for RTC_EnterConfigMode
    stm32f10x_rtc.o(i.RTC_SetAlarm) refers to stm32f10x_rtc.o(i.RTC_ExitConfigMode) for RTC_ExitConfigMode
    stm32f10x_rtc.o(i.RTC_SetCounter) refers to stm32f10x_rtc.o(i.RTC_EnterConfigMode) for RTC_EnterConfigMode
    stm32f10x_rtc.o(i.RTC_SetCounter) refers to stm32f10x_rtc.o(i.RTC_ExitConfigMode) for RTC_ExitConfigMode
    stm32f10x_rtc.o(i.RTC_SetPrescaler) refers to stm32f10x_rtc.o(i.RTC_EnterConfigMode) for RTC_EnterConfigMode
    stm32f10x_rtc.o(i.RTC_SetPrescaler) refers to stm32f10x_rtc.o(i.RTC_ExitConfigMode) for RTC_ExitConfigMode
    stm32f10x_bkp.o(i.BKP_DeInit) refers to stm32f10x_rcc.o(i.RCC_BackupResetCmd) for RCC_BackupResetCmd
    stm32f10x_adc.o(i.ADC_DeInit) refers to stm32f10x_rcc.o(i.RCC_APB2PeriphResetCmd) for RCC_APB2PeriphResetCmd
    rtx_conf_cm.o(i.__user_perthread_libspace) refers to rt_task.o(i.rt_tsk_self) for rt_tsk_self
    rtx_conf_cm.o(i.__user_perthread_libspace) refers to rtx_conf_cm.o(.bss) for .bss
    rtx_conf_cm.o(i.__user_perthread_libspace) refers to libspace.o(.bss) for __libspace_start
    rtx_conf_cm.o(i._mutex_acquire) refers to rt_task.o(i.rt_tsk_self) for rt_tsk_self
    rtx_conf_cm.o(i._mutex_acquire) refers to rt_mutex.o(i.rt_mut_wait) for rt_mut_wait
    rtx_conf_cm.o(i._mutex_initialize) refers to rt_mutex.o(i.rt_mut_init) for rt_mut_init
    rtx_conf_cm.o(i._mutex_initialize) refers to rtx_conf_cm.o(.data) for .data
    rtx_conf_cm.o(i._mutex_initialize) refers to rtx_conf_cm.o(.bss) for .bss
    rtx_conf_cm.o(i._mutex_release) refers to rt_task.o(i.rt_tsk_self) for rt_tsk_self
    rtx_conf_cm.o(i._mutex_release) refers to rt_mutex.o(i.rt_mut_release) for rt_mut_release
    rtx_conf_cm.o(i.os_error) refers to stm32f10x_gpio.o(i.GPIO_SetBits) for GPIO_SetBits
    rtx_conf_cm.o(i.os_error) refers to mainv1.o(i.Delay_ms) for Delay_ms
    rtx_conf_cm.o(i.os_error) refers to stm32f10x_gpio.o(i.GPIO_ResetBits) for GPIO_ResetBits
    mainv1.o(i.Alarm_task) refers to mainv1.o(.data) for .data
    mainv1.o(i.Alarm_task) refers to rt_event.o(i.rt_evt_clr) for rt_evt_clr
    mainv1.o(i.Alarm_task) refers to rt_event.o(i.rt_evt_wait) for rt_evt_wait
    mainv1.o(i.Alarm_task) refers to mainv1.o(i.LED_Blinking_task) for LED_Blinking_task
    mainv1.o(i.Alarm_task) refers to rt_task.o(i.rt_tsk_create) for rt_tsk_create
    mainv1.o(i.Alarm_task) refers to mainv1.o(i.BEEP_task) for BEEP_task
    mainv1.o(i.Alarm_task) refers to rt_event.o(i.rt_evt_set) for rt_evt_set
    mainv1.o(i.Alarm_task) refers to rt_time.o(i.rt_dly_wait) for rt_dly_wait
    mainv1.o(i.AutoAdjustPower_task) refers to dac5615.o(i.DAC5615Out) for DAC5615Out
    mainv1.o(i.AutoAdjustPower_task) refers to mainv1.o(.data) for .data
    mainv1.o(i.AutoAdjustPower_task) refers to rt_time.o(i.rt_dly_wait) for rt_dly_wait
    mainv1.o(i.AutoChoiceAudio_task) refers to stm32f10x_gpio.o(i.GPIO_ReadInputDataBit) for GPIO_ReadInputDataBit
    mainv1.o(i.AutoChoiceAudio_task) refers to anjian.o(i.AUX_INPUT_STATUS) for AUX_INPUT_STATUS
    mainv1.o(i.AutoChoiceAudio_task) refers to anjian.o(i.MP3_INPUT_STATUS) for MP3_INPUT_STATUS
    mainv1.o(i.AutoChoiceAudio_task) refers to pt2314.o(i.PT2314_Setup_CVD) for PT2314_Setup_CVD
    mainv1.o(i.AutoChoiceAudio_task) refers to app.o(.data) for transfer_flag
    mainv1.o(i.AutoChoiceAudio_task) refers to rt_time.o(i.rt_dly_wait) for rt_dly_wait
    mainv1.o(i.AutoFanControl_task) refers to stm32f10x_gpio.o(i.GPIO_SetBits) for GPIO_SetBits
    mainv1.o(i.AutoFanControl_task) refers to stm32f10x_gpio.o(i.GPIO_ResetBits) for GPIO_ResetBits
    mainv1.o(i.AutoFanControl_task) refers to mainv1.o(.data) for .data
    mainv1.o(i.BEEP_task) refers to stm32f10x_gpio.o(i.GPIO_ResetBits) for GPIO_ResetBits
    mainv1.o(i.BEEP_task) refers to stm32f10x_gpio.o(i.GPIO_SetBits) for GPIO_SetBits
    mainv1.o(i.BEEP_task) refers to rt_time.o(i.rt_dly_wait) for rt_dly_wait
    mainv1.o(i.BEEP_task) refers to rt_event.o(i.rt_evt_wait) for rt_evt_wait
    mainv1.o(i.BEEP_task) refers to rt_task.o(i.rt_tsk_delete) for rt_tsk_delete
    mainv1.o(i.COM1_2Init) refers to stm32f10x_rcc.o(i.RCC_APB2PeriphClockCmd) for RCC_APB2PeriphClockCmd
    mainv1.o(i.COM1_2Init) refers to stm32f10x_rcc.o(i.RCC_APB1PeriphClockCmd) for RCC_APB1PeriphClockCmd
    mainv1.o(i.COM1_2Init) refers to stm32f10x_gpio.o(i.GPIO_Init) for GPIO_Init
    mainv1.o(i.COM1_2Init) refers to stm32f10x_usart.o(i.USART_Init) for USART_Init
    mainv1.o(i.COM1_2Init) refers to stm32f10x_usart.o(i.USART_ITConfig) for USART_ITConfig
    mainv1.o(i.COM1_2Init) refers to stm32f10x_usart.o(i.USART_Cmd) for USART_Cmd
    mainv1.o(i.COM1_2Init) refers to mainv1.o(.bss) for .bss
    mainv1.o(i.CollectShowCurrent) refers to mainv1.o(i.Get_CollectCurrentVal) for Get_CollectCurrentVal
    mainv1.o(i.CollectShowCurrent) refers to fflt_clz.o(x$fpl$ffltu) for __aeabi_ui2f
    mainv1.o(i.CollectShowCurrent) refers to mainv1.o(i.filter_I) for filter_I
    mainv1.o(i.CollectShowCurrent) refers to ffixu.o(x$fpl$ffixu) for __aeabi_f2uiz
    mainv1.o(i.CollectShowCurrent) refers to show.o(i.Show_I) for Show_I
    mainv1.o(i.CollectShowCurrent) refers to mainv1.o(.data) for .data
    mainv1.o(i.CollectShowPower) refers to mainv1.o(i.Get_PowerValue) for Get_PowerValue
    mainv1.o(i.CollectShowPower) refers to show.o(i.Show_P) for Show_P
    mainv1.o(i.CollectShowPower) refers to mainv1.o(.data) for .data
    mainv1.o(i.CollectShowRPower) refers to mainv1.o(i.Get_RPowerValue) for Get_RPowerValue
    mainv1.o(i.CollectShowRPower) refers to show.o(i.Show_RP) for Show_RP
    mainv1.o(i.CollectShowRPower) refers to mainv1.o(.data) for .data
    mainv1.o(i.CollectShowSWR) refers to mainv1.o(i.filter_swr) for filter_swr
    mainv1.o(i.CollectShowSWR) refers to show.o(i.Show_SWR) for Show_SWR
    mainv1.o(i.CollectShowSWR) refers to adc.o(.bss) for ADCConvertedValue
    mainv1.o(i.CollectShowSWR) refers to mainv1.o(.data) for .data
    mainv1.o(i.CollectShowTempval) refers to mainv1.o(i.Get_CollectTempval) for Get_CollectTempval
    mainv1.o(i.CollectShowTempval) refers to fflt_clz.o(x$fpl$ffltu) for __aeabi_ui2f
    mainv1.o(i.CollectShowTempval) refers to mainv1.o(i.filter_t) for filter_t
    mainv1.o(i.CollectShowTempval) refers to ffixu.o(x$fpl$ffixu) for __aeabi_f2uiz
    mainv1.o(i.CollectShowTempval) refers to show.o(i.Show_T) for Show_T
    mainv1.o(i.CollectShowTempval) refers to mainv1.o(.data) for .data
    mainv1.o(i.CollectVIN) refers to fflt_clz.o(x$fpl$ffltu) for __aeabi_ui2f
    mainv1.o(i.CollectVIN) refers to mainv1.o(i.filter_vin) for filter_vin
    mainv1.o(i.CollectVIN) refers to ffixu.o(x$fpl$ffixu) for __aeabi_f2uiz
    mainv1.o(i.CollectVIN) refers to adc.o(.bss) for ADCConvertedValue
    mainv1.o(i.CollectVIN) refers to mainv1.o(.data) for .data
    mainv1.o(i.ComDebug_task) refers to qn8027_driver.o(i.QN8027_ReadReg) for QN8027_ReadReg
    mainv1.o(i.ComDebug_task) refers to stm32f10x_usart.o(i.USART_SendData) for USART_SendData
    mainv1.o(i.ComDebug_task) refers to qn8027_driver.o(i.QN8027_WriteReg) for QN8027_WriteReg
    mainv1.o(i.ComDebug_task) refers to mainv1.o(.data) for .data
    mainv1.o(i.ComDebug_task) refers to rt_event.o(i.rt_evt_wait) for rt_evt_wait
    mainv1.o(i.ComDebug_task) refers to rt_event.o(i.rt_evt_set) for rt_evt_set
    mainv1.o(i.DebugMode) refers to drawpicture.o(i.Draw_Clear) for Draw_Clear
    mainv1.o(i.DebugMode) refers to lcd19264 driverv20.o(i.LCD19264_Display_String) for LCD19264_Display_String
    mainv1.o(i.DebugMode) refers to mainv1.o(i.KEY_Status_AllClear) for KEY_Status_AllClear
    mainv1.o(i.DebugMode) refers to lcd19264 driverv20.o(i.LCD19264_DisChar) for LCD19264_DisChar
    mainv1.o(i.DebugMode) refers to lcd19264 driverv20.o(i.LCD19264_DisChar_mask) for LCD19264_DisChar_mask
    mainv1.o(i.DebugMode) refers to anjian.o(i.KEY_UP_STATUS) for KEY_UP_STATUS
    mainv1.o(i.DebugMode) refers to anjian.o(i.KEY_DOWN_STATUS) for KEY_DOWN_STATUS
    mainv1.o(i.DebugMode) refers to anjian.o(i.KEY_LEFT_STATUS) for KEY_LEFT_STATUS
    mainv1.o(i.DebugMode) refers to anjian.o(i.KEY_RIGHT_STATUS) for KEY_RIGHT_STATUS
    mainv1.o(i.DebugMode) refers to anjian.o(i.KEY_OK_STATUS) for KEY_OK_STATUS
    mainv1.o(i.DebugMode) refers to stm32f10x_exti.o(i.EXTI_ClearFlag) for EXTI_ClearFlag
    mainv1.o(i.DebugMode) refers to mainv1.o(i.RDS_SendID) for RDS_SendID
    mainv1.o(i.DebugMode) refers to mainv1.o(i.Delay_ms) for Delay_ms
    mainv1.o(i.DebugMode) refers to anjian.o(i.KEY_MENU_STATUS) for KEY_MENU_STATUS
    mainv1.o(i.DebugMode) refers to mainv1.o(i.RDS_SendVolume) for RDS_SendVolume
    mainv1.o(i.GetArea_DevStatus) refers to app.o(i.RDS_DevicesGroup_Mode_Update) for RDS_DevicesGroup_Mode_Update
    mainv1.o(i.Get_CollectCurrentVal) refers to adc.o(.bss) for ADCConvertedValue
    mainv1.o(i.Get_CollectTempval) refers to adc.o(.bss) for ADCConvertedValue
    mainv1.o(i.Get_PowerValue) refers to fflt_clz.o(x$fpl$ffltu) for __aeabi_ui2f
    mainv1.o(i.Get_PowerValue) refers to mainv1.o(i.filter_p) for filter_p
    mainv1.o(i.Get_PowerValue) refers to ffixu.o(x$fpl$ffixu) for __aeabi_f2uiz
    mainv1.o(i.Get_PowerValue) refers to dflt_clz.o(x$fpl$dfltu) for __aeabi_ui2d
    mainv1.o(i.Get_PowerValue) refers to ddiv.o(x$fpl$ddiv) for __aeabi_ddiv
    mainv1.o(i.Get_PowerValue) refers to d2f.o(x$fpl$d2f) for __aeabi_d2f
    mainv1.o(i.Get_PowerValue) refers to fmul.o(x$fpl$fmul) for __aeabi_fmul
    mainv1.o(i.Get_PowerValue) refers to scalbnf.o(x$fpl$scalbnf) for __ARM_scalbnf
    mainv1.o(i.Get_PowerValue) refers to adc.o(.bss) for ADCConvertedValue
    mainv1.o(i.Get_PowerValue) refers to mainv1.o(.data) for .data
    mainv1.o(i.Get_PowerValue) refers to mainv1.o(.constdata) for .constdata
    mainv1.o(i.Get_RPowerValue) refers to fflt_clz.o(x$fpl$ffltu) for __aeabi_ui2f
    mainv1.o(i.Get_RPowerValue) refers to mainv1.o(i.filter_rp) for filter_rp
    mainv1.o(i.Get_RPowerValue) refers to ffixu.o(x$fpl$ffixu) for __aeabi_f2uiz
    mainv1.o(i.Get_RPowerValue) refers to dflt_clz.o(x$fpl$dfltu) for __aeabi_ui2d
    mainv1.o(i.Get_RPowerValue) refers to ddiv.o(x$fpl$ddiv) for __aeabi_ddiv
    mainv1.o(i.Get_RPowerValue) refers to d2f.o(x$fpl$d2f) for __aeabi_d2f
    mainv1.o(i.Get_RPowerValue) refers to fmul.o(x$fpl$fmul) for __aeabi_fmul
    mainv1.o(i.Get_RPowerValue) refers to scalbnf.o(x$fpl$scalbnf) for __ARM_scalbnf
    mainv1.o(i.Get_RPowerValue) refers to adc.o(.bss) for ADCConvertedValue
    mainv1.o(i.Get_RPowerValue) refers to mainv1.o(.data) for .data
    mainv1.o(i.Get_RPowerValue) refers to mainv1.o(.constdata) for .constdata
    mainv1.o(i.InitTask) refers to mainv1.o(.bss) for .bss
    mainv1.o(i.InitTask) refers to mainv1.o(i.main_task) for main_task
    mainv1.o(i.InitTask) refers to rt_task.o(i.rt_tsk_create) for rt_tsk_create
    mainv1.o(i.InitTask) refers to mainv1.o(.data) for .data
    mainv1.o(i.InitTask) refers to rt_task.o(i.rt_tsk_delete) for rt_tsk_delete
    mainv1.o(i.KEY_Status_AllClear) refers to stm32f10x_exti.o(i.EXTI_ClearFlag) for EXTI_ClearFlag
    mainv1.o(i.KEY_config) refers to stm32f10x_rcc.o(i.RCC_APB2PeriphClockCmd) for RCC_APB2PeriphClockCmd
    mainv1.o(i.KEY_config) refers to stm32f10x_gpio.o(i.GPIO_Init) for GPIO_Init
    mainv1.o(i.KEY_config) refers to stm32f10x_gpio.o(i.GPIO_EXTILineConfig) for GPIO_EXTILineConfig
    mainv1.o(i.KEY_config) refers to stm32f10x_exti.o(i.EXTI_Init) for EXTI_Init
    mainv1.o(i.KEY_config) refers to stm32f10x_gpio.o(i.GPIO_ResetBits) for GPIO_ResetBits
    mainv1.o(i.KEY_config) refers to stm32f10x_gpio.o(i.GPIO_SetBits) for GPIO_SetBits
    mainv1.o(i.LED_Blinking_task) refers to stm32f10x_gpio.o(i.GPIO_SetBits) for GPIO_SetBits
    mainv1.o(i.LED_Blinking_task) refers to stm32f10x_gpio.o(i.GPIO_ResetBits) for GPIO_ResetBits
    mainv1.o(i.LED_Blinking_task) refers to rt_time.o(i.rt_dly_wait) for rt_dly_wait
    mainv1.o(i.LED_Blinking_task) refers to rt_event.o(i.rt_evt_wait) for rt_evt_wait
    mainv1.o(i.LED_Blinking_task) refers to rt_task.o(i.rt_tsk_delete) for rt_tsk_delete
    mainv1.o(i.NVIC_Configuration) refers to misc.o(i.NVIC_PriorityGroupConfig) for NVIC_PriorityGroupConfig
    mainv1.o(i.NVIC_Configuration) refers to misc.o(i.NVIC_Init) for NVIC_Init
    mainv1.o(i.PCRDS_Blinking_task) refers to drawpicture.o(i.Draw_UpdateToLCD) for Draw_UpdateToLCD
    mainv1.o(i.PCRDS_Blinking_task) refers to show.o(i.Show_Picture) for Show_Picture
    mainv1.o(i.PCRDS_Blinking_task) refers to mainv1.o(.data) for .data
    mainv1.o(i.PCRDS_Blinking_task) refers to app.o(.data) for transfer_flag
    mainv1.o(i.PCRDS_Blinking_task) refers to mainv1.o(.bss) for .bss
    mainv1.o(i.PCRDS_Blinking_task) refers to rt_mutex.o(i.rt_mut_wait) for rt_mut_wait
    mainv1.o(i.PCRDS_Blinking_task) refers to show.o(.constdata) for FH_RD8X8
    mainv1.o(i.PCRDS_Blinking_task) refers to show.o(.constdata) for FH_PC8X8
    mainv1.o(i.PCRDS_Blinking_task) refers to rt_mutex.o(i.rt_mut_release) for rt_mut_release
    mainv1.o(i.PCRDS_Blinking_task) refers to rt_time.o(i.rt_dly_wait) for rt_dly_wait
    mainv1.o(i.Print_ZF_Table) refers to drawpicture.o(i.Draw_Ascii6X8) for Draw_Ascii6X8
    mainv1.o(i.Print_ZF_Table) refers to mainv1.o(.constdata) for .constdata
    mainv1.o(i.RDS_SendID) refers to mainv1.o(i.RDSData_Verify) for RDSData_Verify
    mainv1.o(i.RDS_SendID) refers to qn8027_driver.o(i.QN8027_WriteReg) for QN8027_WriteReg
    mainv1.o(i.RDS_SendID) refers to qn8027_driver.o(i.QN8027_ReadReg) for QN8027_ReadReg
    mainv1.o(i.RDS_SendVolume) refers to mainv1.o(i.RDSData_Verify) for RDSData_Verify
    mainv1.o(i.RDS_SendVolume) refers to qn8027_driver.o(i.QN8027_WriteReg) for QN8027_WriteReg
    mainv1.o(i.RDS_SendVolume) refers to qn8027_driver.o(i.QN8027_ReadReg) for QN8027_ReadReg
    mainv1.o(i.RTC_Configuration) refers to stm32f10x_rcc.o(i.RCC_APB1PeriphClockCmd) for RCC_APB1PeriphClockCmd
    mainv1.o(i.RTC_Configuration) refers to stm32f10x_pwr.o(i.PWR_BackupAccessCmd) for PWR_BackupAccessCmd
    mainv1.o(i.RTC_Configuration) refers to stm32f10x_bkp.o(i.BKP_DeInit) for BKP_DeInit
    mainv1.o(i.RTC_Configuration) refers to stm32f10x_rcc.o(i.RCC_LSEConfig) for RCC_LSEConfig
    mainv1.o(i.RTC_Configuration) refers to stm32f10x_rcc.o(i.RCC_GetFlagStatus) for RCC_GetFlagStatus
    mainv1.o(i.RTC_Configuration) refers to stm32f10x_rcc.o(i.RCC_RTCCLKConfig) for RCC_RTCCLKConfig
    mainv1.o(i.RTC_Configuration) refers to stm32f10x_rcc.o(i.RCC_RTCCLKCmd) for RCC_RTCCLKCmd
    mainv1.o(i.RTC_Configuration) refers to stm32f10x_rtc.o(i.RTC_WaitForSynchro) for RTC_WaitForSynchro
    mainv1.o(i.RTC_Configuration) refers to stm32f10x_rtc.o(i.RTC_WaitForLastTask) for RTC_WaitForLastTask
    mainv1.o(i.RTC_Configuration) refers to stm32f10x_rtc.o(i.RTC_ITConfig) for RTC_ITConfig
    mainv1.o(i.RTC_Configuration) refers to stm32f10x_rtc.o(i.RTC_SetPrescaler) for RTC_SetPrescaler
    mainv1.o(i.SET_Audio_And_Time) refers to mainv1.o(i.UpdateSystemTime) for UpdateSystemTime
    mainv1.o(i.SET_Audio_And_Time) refers to mainv1.o(i.KEY_Status_AllClear) for KEY_Status_AllClear
    mainv1.o(i.SET_Audio_And_Time) refers to drawpicture.o(i.Draw_Fill) for Draw_Fill
    mainv1.o(i.SET_Audio_And_Time) refers to drawpicture.o(i.Draw_String6X8) for Draw_String6X8
    mainv1.o(i.SET_Audio_And_Time) refers to drawpicture.o(i.Draw_Ascii6X8) for Draw_Ascii6X8
    mainv1.o(i.SET_Audio_And_Time) refers to show.o(i.Show_Time) for Show_Time
    mainv1.o(i.SET_Audio_And_Time) refers to anjian.o(i.KEY_LEFT_STATUS) for KEY_LEFT_STATUS
    mainv1.o(i.SET_Audio_And_Time) refers to anjian.o(i.KEY_RIGHT_STATUS) for KEY_RIGHT_STATUS
    mainv1.o(i.SET_Audio_And_Time) refers to anjian.o(i.KEY_UP_STATUS) for KEY_UP_STATUS
    mainv1.o(i.SET_Audio_And_Time) refers to anjian.o(i.KEY_DOWN_STATUS) for KEY_DOWN_STATUS
    mainv1.o(i.SET_Audio_And_Time) refers to anjian.o(i.KEY_OK_STATUS) for KEY_OK_STATUS
    mainv1.o(i.SET_Audio_And_Time) refers to pt2314.o(i.PT2314_Setup_Volume) for PT2314_Setup_Volume
    mainv1.o(i.SET_Audio_And_Time) refers to mainv1.o(i.TBval_Change) for TBval_Change
    mainv1.o(i.SET_Audio_And_Time) refers to pt2314.o(i.PT2314_Setup_Treble) for PT2314_Setup_Treble
    mainv1.o(i.SET_Audio_And_Time) refers to pt2314.o(i.PT2314_Setup_Bass) for PT2314_Setup_Bass
    mainv1.o(i.SET_Audio_And_Time) refers to app.o(i.SYS_PARAMETER_Save) for SYS_PARAMETER_Save
    mainv1.o(i.SET_Audio_And_Time) refers to anjian.o(i.KEY_MENU_STATUS) for KEY_MENU_STATUS
    mainv1.o(i.SET_Audio_And_Time) refers to mainv1.o(i.SetupSystemTime) for SetupSystemTime
    mainv1.o(i.SET_Audio_And_Time) refers to mainv1.o(.data) for .data
    mainv1.o(i.SET_Audio_And_Time) refers to app.o(.data) for psys_data
    mainv1.o(i.SET_Audio_And_Time) refers to anjian.o(.data) for UP_LockFlag
    mainv1.o(i.SET_FM_And_RF_Power) refers to mainv1.o(i.KEY_Status_AllClear) for KEY_Status_AllClear
    mainv1.o(i.SET_FM_And_RF_Power) refers to drawpicture.o(i.Draw_Fill) for Draw_Fill
    mainv1.o(i.SET_FM_And_RF_Power) refers to drawpicture.o(i.Draw_String6X8) for Draw_String6X8
    mainv1.o(i.SET_FM_And_RF_Power) refers to show.o(i.SetingWindos_ShowFMchValue) for SetingWindos_ShowFMchValue
    mainv1.o(i.SET_FM_And_RF_Power) refers to show.o(i.SetingWindos_ShowPowerValue) for SetingWindos_ShowPowerValue
    mainv1.o(i.SET_FM_And_RF_Power) refers to drawpicture.o(i.Draw_Ascii6X8) for Draw_Ascii6X8
    mainv1.o(i.SET_FM_And_RF_Power) refers to mainv1.o(i.UpdateSystemTime) for UpdateSystemTime
    mainv1.o(i.SET_FM_And_RF_Power) refers to show.o(i.Show_Time) for Show_Time
    mainv1.o(i.SET_FM_And_RF_Power) refers to anjian.o(i.KEY_LEFT_STATUS) for KEY_LEFT_STATUS
    mainv1.o(i.SET_FM_And_RF_Power) refers to anjian.o(i.KEY_RIGHT_STATUS) for KEY_RIGHT_STATUS
    mainv1.o(i.SET_FM_And_RF_Power) refers to anjian.o(i.KEY_UP_STATUS) for KEY_UP_STATUS
    mainv1.o(i.SET_FM_And_RF_Power) refers to anjian.o(i.KEY_DOWN_STATUS) for KEY_DOWN_STATUS
    mainv1.o(i.SET_FM_And_RF_Power) refers to anjian.o(i.KEY_MENU_STATUS) for KEY_MENU_STATUS
    mainv1.o(i.SET_FM_And_RF_Power) refers to anjian.o(i.KEY_OK_STATUS) for KEY_OK_STATUS
    mainv1.o(i.SET_FM_And_RF_Power) refers to app.o(i.SYS_PARAMETER_Save) for SYS_PARAMETER_Save
    mainv1.o(i.SET_FM_And_RF_Power) refers to show.o(i.SetingWindos_DestroyFMchValue) for SetingWindos_DestroyFMchValue
    mainv1.o(i.SET_FM_And_RF_Power) refers to show.o(i.SetingWindos_DestroyPowerValue) for SetingWindos_DestroyPowerValue
    mainv1.o(i.SET_FM_And_RF_Power) refers to qn8027_driver.o(i.QNd8027_SetChannel) for QNd8027_SetChannel
    mainv1.o(i.SET_FM_And_RF_Power) refers to app.o(.data) for psys_data
    mainv1.o(i.SET_FM_And_RF_Power) refers to anjian.o(.data) for DOWN_LockFlag
    mainv1.o(i.SET_FM_And_RF_Power) refers to mainv1.o(.data) for .data
    mainv1.o(i.SET_Temp_And_SWR) refers to mainv1.o(i.KEY_Status_AllClear) for KEY_Status_AllClear
    mainv1.o(i.SET_Temp_And_SWR) refers to drawpicture.o(i.Draw_Fill) for Draw_Fill
    mainv1.o(i.SET_Temp_And_SWR) refers to drawpicture.o(i.Draw_String6X8) for Draw_String6X8
    mainv1.o(i.SET_Temp_And_SWR) refers to show.o(i.Show_Picture) for Show_Picture
    mainv1.o(i.SET_Temp_And_SWR) refers to drawpicture.o(i.Draw_Ascii6X8) for Draw_Ascii6X8
    mainv1.o(i.SET_Temp_And_SWR) refers to mainv1.o(i.UpdateSystemTime) for UpdateSystemTime
    mainv1.o(i.SET_Temp_And_SWR) refers to show.o(i.Show_Time) for Show_Time
    mainv1.o(i.SET_Temp_And_SWR) refers to anjian.o(i.KEY_LEFT_STATUS) for KEY_LEFT_STATUS
    mainv1.o(i.SET_Temp_And_SWR) refers to anjian.o(i.KEY_RIGHT_STATUS) for KEY_RIGHT_STATUS
    mainv1.o(i.SET_Temp_And_SWR) refers to anjian.o(i.KEY_UP_STATUS) for KEY_UP_STATUS
    mainv1.o(i.SET_Temp_And_SWR) refers to anjian.o(i.KEY_DOWN_STATUS) for KEY_DOWN_STATUS
    mainv1.o(i.SET_Temp_And_SWR) refers to anjian.o(i.KEY_OK_STATUS) for KEY_OK_STATUS
    mainv1.o(i.SET_Temp_And_SWR) refers to app.o(i.SYS_PARAMETER_Save) for SYS_PARAMETER_Save
    mainv1.o(i.SET_Temp_And_SWR) refers to anjian.o(i.KEY_MENU_STATUS) for KEY_MENU_STATUS
    mainv1.o(i.SET_Temp_And_SWR) refers to show.o(.constdata) for FH_du8X8
    mainv1.o(i.SET_Temp_And_SWR) refers to app.o(.data) for psys_data
    mainv1.o(i.SET_Temp_And_SWR) refers to mainv1.o(.data) for .data
    mainv1.o(i.SET_Temp_And_SWR) refers to anjian.o(.data) for UP_LockFlag
    mainv1.o(i.SetupSystemTime) refers to stm32f10x_rtc.o(i.RTC_WaitForLastTask) for RTC_WaitForLastTask
    mainv1.o(i.SetupSystemTime) refers to stm32f10x_rtc.o(i.RTC_SetCounter) for RTC_SetCounter
    mainv1.o(i.Setup_Area_Name) refers to drawpicture.o(i.Draw_Clear) for Draw_Clear
    mainv1.o(i.Setup_Area_Name) refers to stm32f10x_exti.o(i.EXTI_ClearFlag) for EXTI_ClearFlag
    mainv1.o(i.Setup_Area_Name) refers to drawpicture.o(i.Draw_Rect) for Draw_Rect
    mainv1.o(i.Setup_Area_Name) refers to mainv1.o(i.Print_ZF_Table) for Print_ZF_Table
    mainv1.o(i.Setup_Area_Name) refers to drawpicture.o(i.Draw_Ascii6X8) for Draw_Ascii6X8
    mainv1.o(i.Setup_Area_Name) refers to drawpicture.o(i.Draw_Ascii6X8_Downline) for Draw_Ascii6X8_Downline
    mainv1.o(i.Setup_Area_Name) refers to drawpicture.o(i.Draw_String6X8) for Draw_String6X8
    mainv1.o(i.Setup_Area_Name) refers to anjian.o(i.KEY_OK_STATUS) for KEY_OK_STATUS
    mainv1.o(i.Setup_Area_Name) refers to drawpicture.o(i.Draw_XLine) for Draw_XLine
    mainv1.o(i.Setup_Area_Name) refers to anjian.o(i.KEY_UP_STATUS) for KEY_UP_STATUS
    mainv1.o(i.Setup_Area_Name) refers to app.o(i.Area_Name_Save) for Area_Name_Save
    mainv1.o(i.Setup_Area_Name) refers to anjian.o(i.KEY_DOWN_STATUS) for KEY_DOWN_STATUS
    mainv1.o(i.Setup_Area_Name) refers to anjian.o(i.KEY_LEFT_STATUS) for KEY_LEFT_STATUS
    mainv1.o(i.Setup_Area_Name) refers to anjian.o(i.KEY_RIGHT_STATUS) for KEY_RIGHT_STATUS
    mainv1.o(i.Setup_Area_Name) refers to anjian.o(i.KEY_MENU_STATUS) for KEY_MENU_STATUS
    mainv1.o(i.Setup_Area_Name) refers to mainv1.o(.data) for .data
    mainv1.o(i.Setup_Area_Name) refers to mainv1.o(.constdata) for .constdata
    mainv1.o(i.Setup_Area_Name) refers to anjian.o(.data) for UP_LockFlag
    mainv1.o(i.Setup_PS_Name) refers to drawpicture.o(i.Draw_Clear) for Draw_Clear
    mainv1.o(i.Setup_PS_Name) refers to stm32f10x_exti.o(i.EXTI_ClearFlag) for EXTI_ClearFlag
    mainv1.o(i.Setup_PS_Name) refers to drawpicture.o(i.Draw_Rect) for Draw_Rect
    mainv1.o(i.Setup_PS_Name) refers to mainv1.o(i.Print_ZF_Table) for Print_ZF_Table
    mainv1.o(i.Setup_PS_Name) refers to drawpicture.o(i.Draw_Ascii6X8) for Draw_Ascii6X8
    mainv1.o(i.Setup_PS_Name) refers to drawpicture.o(i.Draw_Ascii6X8_Downline) for Draw_Ascii6X8_Downline
    mainv1.o(i.Setup_PS_Name) refers to drawpicture.o(i.Draw_String6X8) for Draw_String6X8
    mainv1.o(i.Setup_PS_Name) refers to anjian.o(i.KEY_OK_STATUS) for KEY_OK_STATUS
    mainv1.o(i.Setup_PS_Name) refers to drawpicture.o(i.Draw_XLine) for Draw_XLine
    mainv1.o(i.Setup_PS_Name) refers to anjian.o(i.KEY_UP_STATUS) for KEY_UP_STATUS
    mainv1.o(i.Setup_PS_Name) refers to app.o(i.PS_Name_Save) for PS_Name_Save
    mainv1.o(i.Setup_PS_Name) refers to app.o(i.ps_int) for ps_int
    mainv1.o(i.Setup_PS_Name) refers to anjian.o(i.KEY_DOWN_STATUS) for KEY_DOWN_STATUS
    mainv1.o(i.Setup_PS_Name) refers to anjian.o(i.KEY_LEFT_STATUS) for KEY_LEFT_STATUS
    mainv1.o(i.Setup_PS_Name) refers to anjian.o(i.KEY_RIGHT_STATUS) for KEY_RIGHT_STATUS
    mainv1.o(i.Setup_PS_Name) refers to anjian.o(i.KEY_MENU_STATUS) for KEY_MENU_STATUS
    mainv1.o(i.Setup_PS_Name) refers to mainv1.o(.data) for .data
    mainv1.o(i.Setup_PS_Name) refers to mainv1.o(.constdata) for .constdata
    mainv1.o(i.Setup_PS_Name) refers to anjian.o(.data) for UP_LockFlag
    mainv1.o(i.Setup_RDSMode) refers to drawpicture.o(i.Draw_Clear) for Draw_Clear
    mainv1.o(i.Setup_RDSMode) refers to drawpicture.o(i.Draw_Rect) for Draw_Rect
    mainv1.o(i.Setup_RDSMode) refers to drawpicture.o(i.Draw_Line) for Draw_Line
    mainv1.o(i.Setup_RDSMode) refers to mainv1.o(i.Show_Device_hangnum) for Show_Device_hangnum
    mainv1.o(i.Setup_RDSMode) refers to mainv1.o(i.Show_DevStatus_Group) for Show_DevStatus_Group
    mainv1.o(i.Setup_RDSMode) refers to mainv1.o(i.Show_ALLSET_Area_Name) for Show_ALLSET_Area_Name
    mainv1.o(i.Setup_RDSMode) refers to mainv1.o(i.Show_ALLSET_Area_Fullsetval) for Show_ALLSET_Area_Fullsetval
    mainv1.o(i.Setup_RDSMode) refers to drawpicture.o(i.Draw_String6X8) for Draw_String6X8
    mainv1.o(i.Setup_RDSMode) refers to anjian.o(i.KEY_MENU_STATUS) for KEY_MENU_STATUS
    mainv1.o(i.Setup_RDSMode) refers to anjian.o(i.KEY_OK_STATUS) for KEY_OK_STATUS
    mainv1.o(i.Setup_RDSMode) refers to mainv1.o(i.Show_DevStatus_One) for Show_DevStatus_One
    mainv1.o(i.Setup_RDSMode) refers to mainv1.o(i.Show_ALLSET_devgb) for Show_ALLSET_devgb
    mainv1.o(i.Setup_RDSMode) refers to aeabi_memset.o(.text) for __aeabi_memset
    mainv1.o(i.Setup_RDSMode) refers to app.o(i.RDS_DevicesGroup_Mode_Save) for RDS_DevicesGroup_Mode_Save
    mainv1.o(i.Setup_RDSMode) refers to anjian.o(i.KEY_UP_STATUS) for KEY_UP_STATUS
    mainv1.o(i.Setup_RDSMode) refers to anjian.o(i.KEY_DOWN_STATUS) for KEY_DOWN_STATUS
    mainv1.o(i.Setup_RDSMode) refers to anjian.o(i.KEY_LEFT_STATUS) for KEY_LEFT_STATUS
    mainv1.o(i.Setup_RDSMode) refers to app.o(i.RDS_DevicesGroup_Mode_Update) for RDS_DevicesGroup_Mode_Update
    mainv1.o(i.Setup_RDSMode) refers to anjian.o(i.KEY_RIGHT_STATUS) for KEY_RIGHT_STATUS
    mainv1.o(i.Setup_RDSMode) refers to app.o(.data) for area_group_terminal_set_flag
    mainv1.o(i.Setup_RDSMode) refers to mainv1.o(.data) for .data
    mainv1.o(i.Setup_RDSMode) refers to mainv1.o(.bss) for .bss
    mainv1.o(i.Setup_RDSMode) refers to anjian.o(.data) for UP_LockFlag
    mainv1.o(i.Setup_RDS_Window) refers to drawpicture.o(i.Draw_Fill) for Draw_Fill
    mainv1.o(i.Setup_RDS_Window) refers to stm32f10x_exti.o(i.EXTI_ClearFlag) for EXTI_ClearFlag
    mainv1.o(i.Setup_RDS_Window) refers to drawpicture.o(i.Draw_String6X8) for Draw_String6X8
    mainv1.o(i.Setup_RDS_Window) refers to mainv1.o(i.Show_PS_Name) for Show_PS_Name
    mainv1.o(i.Setup_RDS_Window) refers to mainv1.o(i.Show_Area_Name) for Show_Area_Name
    mainv1.o(i.Setup_RDS_Window) refers to mainv1.o(i.Show_RDS_SetMode) for Show_RDS_SetMode
    mainv1.o(i.Setup_RDS_Window) refers to drawpicture.o(i.Draw_Ascii6X8) for Draw_Ascii6X8
    mainv1.o(i.Setup_RDS_Window) refers to mainv1.o(i.UpdateSystemTime) for UpdateSystemTime
    mainv1.o(i.Setup_RDS_Window) refers to show.o(i.Show_Time) for Show_Time
    mainv1.o(i.Setup_RDS_Window) refers to anjian.o(i.KEY_UP_STATUS) for KEY_UP_STATUS
    mainv1.o(i.Setup_RDS_Window) refers to anjian.o(i.KEY_DOWN_STATUS) for KEY_DOWN_STATUS
    mainv1.o(i.Setup_RDS_Window) refers to anjian.o(i.KEY_LEFT_STATUS) for KEY_LEFT_STATUS
    mainv1.o(i.Setup_RDS_Window) refers to app.o(i.SYS_PARAMETER_Save) for SYS_PARAMETER_Save
    mainv1.o(i.Setup_RDS_Window) refers to app.o(i.ps_int) for ps_int
    mainv1.o(i.Setup_RDS_Window) refers to app.o(i.RDS_DevicesGroup_Mode_Update) for RDS_DevicesGroup_Mode_Update
    mainv1.o(i.Setup_RDS_Window) refers to anjian.o(i.KEY_RIGHT_STATUS) for KEY_RIGHT_STATUS
    mainv1.o(i.Setup_RDS_Window) refers to anjian.o(i.KEY_MENU_STATUS) for KEY_MENU_STATUS
    mainv1.o(i.Setup_RDS_Window) refers to anjian.o(i.KEY_RDS_STATUS) for KEY_RDS_STATUS
    mainv1.o(i.Setup_RDS_Window) refers to anjian.o(i.KEY_OK_STATUS) for KEY_OK_STATUS
    mainv1.o(i.Setup_RDS_Window) refers to mainv1.o(i.Setup_PS_Name) for Setup_PS_Name
    mainv1.o(i.Setup_RDS_Window) refers to mainv1.o(i.Setup_Area_Name) for Setup_Area_Name
    mainv1.o(i.Setup_RDS_Window) refers to mainv1.o(i.Setup_RDSMode) for Setup_RDSMode
    mainv1.o(i.Setup_RDS_Window) refers to drawpicture.o(i.Draw_Clear) for Draw_Clear
    mainv1.o(i.Setup_RDS_Window) refers to drawpicture.o(i.Draw_Rect) for Draw_Rect
    mainv1.o(i.Setup_RDS_Window) refers to drawpicture.o(i.Draw_Line) for Draw_Line
    mainv1.o(i.Setup_RDS_Window) refers to show.o(i.Show_RDS_logox) for Show_RDS_logox
    mainv1.o(i.Setup_RDS_Window) refers to show.o(i.Show_Picture) for Show_Picture
    mainv1.o(i.Setup_RDS_Window) refers to show.o(i.Show_RDS) for Show_RDS
    mainv1.o(i.Setup_RDS_Window) refers to show.o(i.Show_TX) for Show_TX
    mainv1.o(i.Setup_RDS_Window) refers to stm32f10x_gpio.o(i.GPIO_ResetBits) for GPIO_ResetBits
    mainv1.o(i.Setup_RDS_Window) refers to show.o(i.Show_FM) for Show_FM
    mainv1.o(i.Setup_RDS_Window) refers to show.o(i.Show_I) for Show_I
    mainv1.o(i.Setup_RDS_Window) refers to show.o(i.Show_T) for Show_T
    mainv1.o(i.Setup_RDS_Window) refers to show.o(i.Show_P) for Show_P
    mainv1.o(i.Setup_RDS_Window) refers to show.o(i.Show_RP) for Show_RP
    mainv1.o(i.Setup_RDS_Window) refers to show.o(i.Show_SWR) for Show_SWR
    mainv1.o(i.Setup_RDS_Window) refers to stm32f10x_gpio.o(i.GPIO_SetBits) for GPIO_SetBits
    mainv1.o(i.Setup_RDS_Window) refers to mainv1.o(.data) for .data
    mainv1.o(i.Setup_RDS_Window) refers to app.o(.data) for psys_data
    mainv1.o(i.Setup_RDS_Window) refers to rt_time.o(i.rt_dly_wait) for rt_dly_wait
    mainv1.o(i.Setup_RDS_Window) refers to show.o(.constdata) for FH_RD8X8
    mainv1.o(i.Setup_RDS_Window) refers to show.o(.constdata) for FH_PC8X8
    mainv1.o(i.Show_ALLSET_Area_Fullsetval) refers to show.o(i.Show_Picture) for Show_Picture
    mainv1.o(i.Show_ALLSET_Area_Fullsetval) refers to drawpicture.o(i.Draw_Lump_fb) for Draw_Lump_fb
    mainv1.o(i.Show_ALLSET_Area_Fullsetval) refers to show.o(.constdata) for X_SPK8X8
    mainv1.o(i.Show_ALLSET_Area_Fullsetval) refers to show.o(.constdata) for S_SPK8X8
    mainv1.o(i.Show_ALLSET_Area_Fullsetval) refers to show.o(.constdata) for M_SPK8X8
    mainv1.o(i.Show_ALLSET_Area_Fullsetval) refers to show.o(.constdata) for B_SPK8X8
    mainv1.o(i.Show_ALLSET_Area_Name) refers to drawpicture.o(i.Draw_Ascii6X8) for Draw_Ascii6X8
    mainv1.o(i.Show_ALLSET_Area_Name) refers to drawpicture.o(i.Draw_Ascii6X8_Downline) for Draw_Ascii6X8_Downline
    mainv1.o(i.Show_ALLSET_Area_Name) refers to mainv1.o(.data) for .data
    mainv1.o(i.Show_ALLSET_devgb) refers to drawpicture.o(i.Draw_Lump_fb) for Draw_Lump_fb
    mainv1.o(i.Show_Area_Name) refers to drawpicture.o(i.Draw_Ascii6X8) for Draw_Ascii6X8
    mainv1.o(i.Show_Area_Name) refers to mainv1.o(.data) for .data
    mainv1.o(i.Show_DevStatus_Group) refers to drawpicture.o(i.Draw_String6X8) for Draw_String6X8
    mainv1.o(i.Show_DevStatus_Group) refers to mainv1.o(i.Show_DevStatus_One) for Show_DevStatus_One
    mainv1.o(i.Show_DevStatus_Group) refers to mainv1.o(.bss) for .bss
    mainv1.o(i.Show_DevStatus_One) refers to show.o(i.Show_Picture) for Show_Picture
    mainv1.o(i.Show_DevStatus_One) refers to show.o(.constdata) for X_SPK
    mainv1.o(i.Show_DevStatus_One) refers to show.o(.constdata) for B_SPK
    mainv1.o(i.Show_DevStatus_One) refers to show.o(.constdata) for S_SPK
    mainv1.o(i.Show_DevStatus_One) refers to show.o(.constdata) for M_SPK
    mainv1.o(i.Show_Device_hangnum) refers to drawpicture.o(i.Draw_Ascii6X8) for Draw_Ascii6X8
    mainv1.o(i.Show_Device_hangnum) refers to show.o(i.Show_Picture) for Show_Picture
    mainv1.o(i.Show_Device_hangnum) refers to show.o(.constdata) for SW_8X8
    mainv1.o(i.Show_PS_Name) refers to drawpicture.o(i.Draw_Ascii6X8) for Draw_Ascii6X8
    mainv1.o(i.Show_PS_Name) refers to mainv1.o(.data) for .data
    mainv1.o(i.Show_RDS_SetMode) refers to drawpicture.o(i.Draw_String6X8) for Draw_String6X8
    mainv1.o(i.TIM3Init) refers to stm32f10x_rcc.o(i.RCC_APB1PeriphClockCmd) for RCC_APB1PeriphClockCmd
    mainv1.o(i.TIM3Init) refers to stm32f10x_tim.o(i.TIM_DeInit) for TIM_DeInit
    mainv1.o(i.TIM3Init) refers to stm32f10x_tim.o(i.TIM_TimeBaseInit) for TIM_TimeBaseInit
    mainv1.o(i.TIM3Init) refers to stm32f10x_tim.o(i.TIM_ClearITPendingBit) for TIM_ClearITPendingBit
    mainv1.o(i.TIM3Init) refers to stm32f10x_tim.o(i.TIM_ITConfig) for TIM_ITConfig
    mainv1.o(i.TIM3Init) refers to stm32f10x_tim.o(i.TIM_Cmd) for TIM_Cmd
    mainv1.o(i.UpdateSystemTime) refers to stm32f10x_rtc.o(i.RTC_GetCounter) for RTC_GetCounter
    mainv1.o(i.UpdateSystemTime) refers to mainv1.o(.data) for .data
    mainv1.o(i.comdata_task) refers to app.o(i.protocol) for protocol
    mainv1.o(i.comdata_task) refers to mainv1.o(.data) for .data
    mainv1.o(i.comdata_task) refers to mainv1.o(.bss) for .bss
    mainv1.o(i.comdata_task) refers to rt_mutex.o(i.rt_mut_wait) for rt_mut_wait
    mainv1.o(i.comdata_task) refers to rt_mutex.o(i.rt_mut_release) for rt_mut_release
    mainv1.o(i.comdata_task) refers to rt_time.o(i.rt_dly_wait) for rt_dly_wait
    mainv1.o(i.filter_I) refers to frleqf.o(x$fpl$frleqf) for __aeabi_cfrcmple
    mainv1.o(i.filter_I) refers to faddsub_clz.o(x$fpl$fadd) for __aeabi_fadd
    mainv1.o(i.filter_I) refers to fdiv.o(x$fpl$fdiv) for __aeabi_fdiv
    mainv1.o(i.filter_I) refers to mainv1.o(.bss) for .bss
    mainv1.o(i.filter_I) refers to mainv1.o(.data) for .data
    mainv1.o(i.filter_p) refers to frleqf.o(x$fpl$frleqf) for __aeabi_cfrcmple
    mainv1.o(i.filter_p) refers to faddsub_clz.o(x$fpl$fadd) for __aeabi_fadd
    mainv1.o(i.filter_p) refers to fdiv.o(x$fpl$fdiv) for __aeabi_fdiv
    mainv1.o(i.filter_p) refers to mainv1.o(.bss) for .bss
    mainv1.o(i.filter_p) refers to mainv1.o(.data) for .data
    mainv1.o(i.filter_rp) refers to frleqf.o(x$fpl$frleqf) for __aeabi_cfrcmple
    mainv1.o(i.filter_rp) refers to faddsub_clz.o(x$fpl$fadd) for __aeabi_fadd
    mainv1.o(i.filter_rp) refers to fdiv.o(x$fpl$fdiv) for __aeabi_fdiv
    mainv1.o(i.filter_rp) refers to mainv1.o(.bss) for .bss
    mainv1.o(i.filter_rp) refers to mainv1.o(.data) for .data
    mainv1.o(i.filter_swr) refers to mainv1.o(.bss) for .bss
    mainv1.o(i.filter_swr) refers to mainv1.o(.data) for .data
    mainv1.o(i.filter_t) refers to frleqf.o(x$fpl$frleqf) for __aeabi_cfrcmple
    mainv1.o(i.filter_t) refers to faddsub_clz.o(x$fpl$fadd) for __aeabi_fadd
    mainv1.o(i.filter_t) refers to fdiv.o(x$fpl$fdiv) for __aeabi_fdiv
    mainv1.o(i.filter_t) refers to mainv1.o(.bss) for .bss
    mainv1.o(i.filter_t) refers to mainv1.o(.data) for .data
    mainv1.o(i.filter_vin) refers to frleqf.o(x$fpl$frleqf) for __aeabi_cfrcmple
    mainv1.o(i.filter_vin) refers to faddsub_clz.o(x$fpl$fadd) for __aeabi_fadd
    mainv1.o(i.filter_vin) refers to fdiv.o(x$fpl$fdiv) for __aeabi_fdiv
    mainv1.o(i.filter_vin) refers to mainv1.o(.bss) for .bss
    mainv1.o(i.filter_vin) refers to mainv1.o(.data) for .data
    mainv1.o(i.main) refers to mainv1.o(i.KEY_config) for KEY_config
    mainv1.o(i.main) refers to dac5615.o(i.DAC5615_Init) for DAC5615_Init
    mainv1.o(i.main) refers to stm32f10x_bkp.o(i.BKP_ReadBackupRegister) for BKP_ReadBackupRegister
    mainv1.o(i.main) refers to mainv1.o(i.RTC_Configuration) for RTC_Configuration
    mainv1.o(i.main) refers to stm32f10x_rtc.o(i.RTC_WaitForLastTask) for RTC_WaitForLastTask
    mainv1.o(i.main) refers to stm32f10x_rtc.o(i.RTC_SetCounter) for RTC_SetCounter
    mainv1.o(i.main) refers to stm32f10x_bkp.o(i.BKP_WriteBackupRegister) for BKP_WriteBackupRegister
    mainv1.o(i.main) refers to stm32f10x_rcc.o(i.RCC_APB1PeriphClockCmd) for RCC_APB1PeriphClockCmd
    mainv1.o(i.main) refers to stm32f10x_pwr.o(i.PWR_BackupAccessCmd) for PWR_BackupAccessCmd
    mainv1.o(i.main) refers to stm32f10x_rtc.o(i.RTC_WaitForSynchro) for RTC_WaitForSynchro
    mainv1.o(i.main) refers to stm32f10x_rtc.o(i.RTC_ITConfig) for RTC_ITConfig
    mainv1.o(i.main) refers to mainv1.o(i.COM1_2Init) for COM1_2Init
    mainv1.o(i.main) refers to mainv1.o(i.TIM3Init) for TIM3Init
    mainv1.o(i.main) refers to mainv1.o(i.NVIC_Configuration) for NVIC_Configuration
    mainv1.o(i.main) refers to hal_cm3.o(.emb_text) for os_set_env
    mainv1.o(i.main) refers to mainv1.o(i.InitTask) for InitTask
    mainv1.o(i.main) refers to rt_task.o(i.rt_sys_init) for rt_sys_init
    mainv1.o(i.main_task) refers to dac5615.o(i.DAC5615Out) for DAC5615Out
    mainv1.o(i.main_task) refers to mainv1.o(i.Delay_ms) for Delay_ms
    mainv1.o(i.main_task) refers to lcd19264 driverv20.o(i.LCD19264_Init) for LCD19264_Init
    mainv1.o(i.main_task) refers to lcd19264 driverv20.o(i.LCD19264_BG_Open) for LCD19264_BG_Open
    mainv1.o(i.main_task) refers to lcd19264 driverv20.o(i.LCD19264_Display_String) for LCD19264_Display_String
    mainv1.o(i.main_task) refers to pt2314.o(i.PT2314_Init) for PT2314_Init
    mainv1.o(i.main_task) refers to lcd19264 driverv20.o(i.LCD19264_Clear) for LCD19264_Clear
    mainv1.o(i.main_task) refers to drawpicture.o(i.Draw_Clear) for Draw_Clear
    mainv1.o(i.main_task) refers to drawpicture.o(i.Draw_Picture_logoRDS) for Draw_Picture_logoRDS
    mainv1.o(i.main_task) refers to drawpicture.o(i.Draw_Rect) for Draw_Rect
    mainv1.o(i.main_task) refers to drawpicture.o(i.Draw_Line) for Draw_Line
    mainv1.o(i.main_task) refers to drawpicture.o(i.Draw_String6X8) for Draw_String6X8
    mainv1.o(i.main_task) refers to drawpicture.o(i.Draw_Ascii6X8) for Draw_Ascii6X8
    mainv1.o(i.main_task) refers to anjian.o(i.KEY_OK_STATUS) for KEY_OK_STATUS
    mainv1.o(i.main_task) refers to pt2314.o(i.PT2314_Setup_CVD) for PT2314_Setup_CVD
    mainv1.o(i.main_task) refers to qn8027_driver.o(i.QN8027_Init) for QN8027_Init
    mainv1.o(i.main_task) refers to app.o(i.SYS_PARAMETER_Update) for SYS_PARAMETER_Update
    mainv1.o(i.main_task) refers to qn8027_driver.o(i.QNd8027_SetChannel) for QNd8027_SetChannel
    mainv1.o(i.main_task) refers to pt2314.o(i.PT2314_Setup_Volume) for PT2314_Setup_Volume
    mainv1.o(i.main_task) refers to pt2314.o(i.PT2314_Setup_Treble) for PT2314_Setup_Treble
    mainv1.o(i.main_task) refers to pt2314.o(i.PT2314_Setup_Bass) for PT2314_Setup_Bass
    mainv1.o(i.main_task) refers to show.o(i.Show_RDS_logox) for Show_RDS_logox
    mainv1.o(i.main_task) refers to show.o(i.Show_FSRF_Logo) for Show_FSRF_Logo
    mainv1.o(i.main_task) refers to show.o(i.Show_Picture) for Show_Picture
    mainv1.o(i.main_task) refers to show.o(i.Show_RDS) for Show_RDS
    mainv1.o(i.main_task) refers to show.o(i.Show_TX) for Show_TX
    mainv1.o(i.main_task) refers to stm32f10x_gpio.o(i.GPIO_ResetBits) for GPIO_ResetBits
    mainv1.o(i.main_task) refers to show.o(i.Show_Time) for Show_Time
    mainv1.o(i.main_task) refers to show.o(i.Show_FM) for Show_FM
    mainv1.o(i.main_task) refers to show.o(i.Show_I) for Show_I
    mainv1.o(i.main_task) refers to show.o(i.Show_T) for Show_T
    mainv1.o(i.main_task) refers to show.o(i.Show_P) for Show_P
    mainv1.o(i.main_task) refers to show.o(i.Show_RP) for Show_RP
    mainv1.o(i.main_task) refers to show.o(i.Show_SWR) for Show_SWR
    mainv1.o(i.main_task) refers to show.o(i.Show_Volume) for Show_Volume
    mainv1.o(i.main_task) refers to show.o(i.Show_PEVal) for Show_PEVal
    mainv1.o(i.main_task) refers to show.o(i.Show_VOLB) for Show_VOLB
    mainv1.o(i.main_task) refers to show.o(i.Show_VOLH) for Show_VOLH
    mainv1.o(i.main_task) refers to stm32f10x_exti.o(i.EXTI_ClearFlag) for EXTI_ClearFlag
    mainv1.o(i.main_task) refers to mainv1.o(i.KEY_Status_AllClear) for KEY_Status_AllClear
    mainv1.o(i.main_task) refers to stm32f10x_gpio.o(i.GPIO_SetBits) for GPIO_SetBits
    mainv1.o(i.main_task) refers to mainv1.o(i.UpdateSystemTime) for UpdateSystemTime
    mainv1.o(i.main_task) refers to stm32f10x_gpio.o(i.GPIO_ReadInputDataBit) for GPIO_ReadInputDataBit
    mainv1.o(i.main_task) refers to mainv1.o(i.CollectShowCurrent) for CollectShowCurrent
    mainv1.o(i.main_task) refers to mainv1.o(i.CollectShowTempval) for CollectShowTempval
    mainv1.o(i.main_task) refers to mainv1.o(i.CollectShowPower) for CollectShowPower
    mainv1.o(i.main_task) refers to mainv1.o(i.CollectShowRPower) for CollectShowRPower
    mainv1.o(i.main_task) refers to mainv1.o(i.CollectVIN) for CollectVIN
    mainv1.o(i.main_task) refers to mainv1.o(i.CollectShowSWR) for CollectShowSWR
    mainv1.o(i.main_task) refers to drawpicture.o(i.Draw_Fill) for Draw_Fill
    mainv1.o(i.main_task) refers to pt2314.o(.data) for pt2314_error_flag
    mainv1.o(i.main_task) refers to mainv1.o(.data) for .data
    mainv1.o(i.main_task) refers to rt_time.o(i.rt_dly_wait) for rt_dly_wait
    mainv1.o(i.main_task) refers to app.o(i.RDS_task) for RDS_task
    mainv1.o(i.main_task) refers to rt_task.o(i.rt_tsk_create) for rt_tsk_create
    mainv1.o(i.main_task) refers to mainv1.o(.bss) for .bss
    mainv1.o(i.main_task) refers to rt_mutex.o(i.rt_mut_init) for rt_mut_init
    mainv1.o(i.main_task) refers to mainv1.o(i.AutoAdjustPower_task) for AutoAdjustPower_task
    mainv1.o(i.main_task) refers to mainv1.o(i.AutoChoiceAudio_task) for AutoChoiceAudio_task
    mainv1.o(i.main_task) refers to mainv1.o(i.Alarm_task) for Alarm_task
    mainv1.o(i.main_task) refers to mainv1.o(i.PCRDS_Blinking_task) for PCRDS_Blinking_task
    mainv1.o(i.main_task) refers to mainv1.o(i.comdata_task) for comdata_task
    mainv1.o(i.main_task) refers to rt_mutex.o(i.rt_mut_wait) for rt_mut_wait
    mainv1.o(i.main_task) refers to show.o(.constdata) for FH_RD8X8
    mainv1.o(i.main_task) refers to show.o(.constdata) for FH_PC8X8
    mainv1.o(i.main_task) refers to rt_mutex.o(i.rt_mut_release) for rt_mut_release
    mainv1.o(i.main_task) refers to rt_event.o(i.rt_evt_set) for rt_evt_set
    mainv1.o(i.main_task) refers to show.o(.constdata) for Alarm_Pic16X16
    mainv1.o(i.main_task) refers to anjian.o(i.KEY_DOWN_STATUS) for KEY_DOWN_STATUS
    mainv1.o(i.main_task) refers to anjian.o(i.KEY_UP_STATUS) for KEY_UP_STATUS
    mainv1.o(i.main_task) refers to anjian.o(i.KEY_RIGHT_STATUS) for KEY_RIGHT_STATUS
    mainv1.o(i.main_task) refers to anjian.o(i.KEY_LEFT_STATUS) for KEY_LEFT_STATUS
    mainv1.o(i.main_task) refers to anjian.o(i.KEY_MENU_STATUS) for KEY_MENU_STATUS
    mainv1.o(i.main_task) refers to anjian.o(i.KEY_RDS_STATUS) for KEY_RDS_STATUS
    mainv1.o(i.main_task) refers to mainv1.o(i.Setup_RDS_Window) for Setup_RDS_Window
    mainv1.o(i.main_task) refers to anjian.o(.data) for DOWN_LockFlag
    mainv1.o(i.main_task) refers to app.o(.data) for psys_data
    mainv1.o(i.main_task) refers to mainv1.o(i.SET_FM_And_RF_Power) for SET_FM_And_RF_Power
    mainv1.o(i.main_task) refers to mainv1.o(i.SET_Audio_And_Time) for SET_Audio_And_Time
    mainv1.o(i.main_task) refers to mainv1.o(i.SET_Temp_And_SWR) for SET_Temp_And_SWR
    lcd19264 driverv20.o(i.LCD19264_BG_Close) refers to stm32f10x_gpio.o(i.GPIO_SetBits) for GPIO_SetBits
    lcd19264 driverv20.o(i.LCD19264_BG_Open) refers to stm32f10x_gpio.o(i.GPIO_ResetBits) for GPIO_ResetBits
    lcd19264 driverv20.o(i.LCD19264_Clear) refers to lcd19264 driverv20.o(i.LCD19264_Posbyte) for LCD19264_Posbyte
    lcd19264 driverv20.o(i.LCD19264_DisChar) refers to lcd19264 driverv20.o(i.LCD19264_Posbyte) for LCD19264_Posbyte
    lcd19264 driverv20.o(i.LCD19264_DisChar) refers to lcd19264 driverv20.o(.constdata) for .constdata
    lcd19264 driverv20.o(i.LCD19264_DisChar6X8) refers to lcd19264 driverv20.o(i.LCD19264_Posbyte) for LCD19264_Posbyte
    lcd19264 driverv20.o(i.LCD19264_DisChar6X8) refers to lcd19264 driverv20.o(.constdata) for .constdata
    lcd19264 driverv20.o(i.LCD19264_DisChar_mask) refers to lcd19264 driverv20.o(i.LCD19264_Posbyte) for LCD19264_Posbyte
    lcd19264 driverv20.o(i.LCD19264_DisChar_mask) refers to lcd19264 driverv20.o(.constdata) for .constdata
    lcd19264 driverv20.o(i.LCD19264_DisOFF) refers to stm32f10x_gpio.o(i.GPIO_SetBits) for GPIO_SetBits
    lcd19264 driverv20.o(i.LCD19264_DisOFF) refers to lcd19264 driverv20.o(i.WriteCommandL) for WriteCommandL
    lcd19264 driverv20.o(i.LCD19264_DisOFF) refers to lcd19264 driverv20.o(i.WriteCommandM) for WriteCommandM
    lcd19264 driverv20.o(i.LCD19264_DisOFF) refers to lcd19264 driverv20.o(i.WriteCommandR) for WriteCommandR
    lcd19264 driverv20.o(i.LCD19264_DisON) refers to stm32f10x_gpio.o(i.GPIO_SetBits) for GPIO_SetBits
    lcd19264 driverv20.o(i.LCD19264_DisON) refers to lcd19264 driverv20.o(i.WriteCommandL) for WriteCommandL
    lcd19264 driverv20.o(i.LCD19264_DisON) refers to lcd19264 driverv20.o(i.WriteCommandM) for WriteCommandM
    lcd19264 driverv20.o(i.LCD19264_DisON) refers to lcd19264 driverv20.o(i.WriteCommandR) for WriteCommandR
    lcd19264 driverv20.o(i.LCD19264_Display_String) refers to lcd19264 driverv20.o(i.LCD19264_DisChar) for LCD19264_DisChar
    lcd19264 driverv20.o(i.LCD19264_Display_String6X8) refers to lcd19264 driverv20.o(i.LCD19264_DisChar6X8) for LCD19264_DisChar6X8
    lcd19264 driverv20.o(i.LCD19264_Display_String_mask) refers to lcd19264 driverv20.o(i.LCD19264_DisChar_mask) for LCD19264_DisChar_mask
    lcd19264 driverv20.o(i.LCD19264_Init) refers to stm32f10x_rcc.o(i.RCC_APB2PeriphClockCmd) for RCC_APB2PeriphClockCmd
    lcd19264 driverv20.o(i.LCD19264_Init) refers to stm32f10x_gpio.o(i.GPIO_Init) for GPIO_Init
    lcd19264 driverv20.o(i.LCD19264_Init) refers to lcd19264 driverv20.o(i.LCD19264_DisOFF) for LCD19264_DisOFF
    lcd19264 driverv20.o(i.LCD19264_Init) refers to lcd19264 driverv20.o(i.LCD19264_Clear) for LCD19264_Clear
    lcd19264 driverv20.o(i.LCD19264_Init) refers to lcd19264 driverv20.o(i.LCD19264_DisON) for LCD19264_DisON
    lcd19264 driverv20.o(i.LCD19264_Init) refers to lcd19264 driverv20.o(i.LCD19264_StartLine) for LCD19264_StartLine
    lcd19264 driverv20.o(i.LCD19264_Posbyte) refers to stm32f10x_gpio.o(i.GPIO_SetBits) for GPIO_SetBits
    lcd19264 driverv20.o(i.LCD19264_Posbyte) refers to stm32f10x_gpio.o(i.GPIO_ResetBits) for GPIO_ResetBits
    lcd19264 driverv20.o(i.LCD19264_Posbyte) refers to lcd19264 driverv20.o(i.LCD_WriteCMD) for LCD_WriteCMD
    lcd19264 driverv20.o(i.LCD19264_Posbyte) refers to lcd19264 driverv20.o(i.SendByte) for SendByte
    lcd19264 driverv20.o(i.LCD19264_Posbyte) refers to lcd19264 driverv20.o(i.delay) for delay
    lcd19264 driverv20.o(i.LCD19264_StartLine) refers to stm32f10x_gpio.o(i.GPIO_SetBits) for GPIO_SetBits
    lcd19264 driverv20.o(i.LCD19264_StartLine) refers to lcd19264 driverv20.o(i.WriteCommandL) for WriteCommandL
    lcd19264 driverv20.o(i.LCD19264_StartLine) refers to lcd19264 driverv20.o(i.WriteCommandM) for WriteCommandM
    lcd19264 driverv20.o(i.LCD19264_StartLine) refers to lcd19264 driverv20.o(i.WriteCommandR) for WriteCommandR
    lcd19264 driverv20.o(i.LCD_WriteCMD) refers to stm32f10x_gpio.o(i.GPIO_ResetBits) for GPIO_ResetBits
    lcd19264 driverv20.o(i.LCD_WriteCMD) refers to lcd19264 driverv20.o(i.SendByte) for SendByte
    lcd19264 driverv20.o(i.LCD_WriteCMD) refers to stm32f10x_gpio.o(i.GPIO_SetBits) for GPIO_SetBits
    lcd19264 driverv20.o(i.LCD_WriteCMD) refers to lcd19264 driverv20.o(i.delay) for delay
    lcd19264 driverv20.o(i.SendByte) refers to stm32f10x_gpio.o(i.GPIO_SetBits) for GPIO_SetBits
    lcd19264 driverv20.o(i.SendByte) refers to stm32f10x_gpio.o(i.GPIO_ResetBits) for GPIO_ResetBits
    lcd19264 driverv20.o(i.WriteCommandL) refers to stm32f10x_gpio.o(i.GPIO_ResetBits) for GPIO_ResetBits
    lcd19264 driverv20.o(i.WriteCommandL) refers to lcd19264 driverv20.o(i.LCD_WriteCMD) for LCD_WriteCMD
    lcd19264 driverv20.o(i.WriteCommandL) refers to stm32f10x_gpio.o(i.GPIO_SetBits) for GPIO_SetBits
    lcd19264 driverv20.o(i.WriteCommandM) refers to stm32f10x_gpio.o(i.GPIO_ResetBits) for GPIO_ResetBits
    lcd19264 driverv20.o(i.WriteCommandM) refers to lcd19264 driverv20.o(i.LCD_WriteCMD) for LCD_WriteCMD
    lcd19264 driverv20.o(i.WriteCommandM) refers to stm32f10x_gpio.o(i.GPIO_SetBits) for GPIO_SetBits
    lcd19264 driverv20.o(i.WriteCommandR) refers to stm32f10x_gpio.o(i.GPIO_ResetBits) for GPIO_ResetBits
    lcd19264 driverv20.o(i.WriteCommandR) refers to lcd19264 driverv20.o(i.LCD_WriteCMD) for LCD_WriteCMD
    lcd19264 driverv20.o(i.WriteCommandR) refers to stm32f10x_gpio.o(i.GPIO_SetBits) for GPIO_SetBits
    drawpicture.o(i.Draw_Ascii6X8) refers to drawpicture.o(i.Draw_Point) for Draw_Point
    drawpicture.o(i.Draw_Ascii6X8) refers to lcd19264 driverv20.o(.constdata) for FONT6x8
    drawpicture.o(i.Draw_Ascii6X8_Downline) refers to drawpicture.o(i.Draw_Point) for Draw_Point
    drawpicture.o(i.Draw_Ascii6X8_Downline) refers to lcd19264 driverv20.o(.constdata) for FONT6x8
    drawpicture.o(i.Draw_Circle) refers to drawpicture.o(i.Draw_Point) for Draw_Point
    drawpicture.o(i.Draw_Clear) refers to drawpicture.o(i.Draw_Clear_DDRAM) for Draw_Clear_DDRAM
    drawpicture.o(i.Draw_Clear) refers to drawpicture.o(i.Draw_UpdateToLCD) for Draw_UpdateToLCD
    drawpicture.o(i.Draw_Clear_DDRAM) refers to drawpicture.o(.bss) for .bss
    drawpicture.o(i.Draw_Fill) refers to drawpicture.o(i.Draw_XLine) for Draw_XLine
    drawpicture.o(i.Draw_GetPointColor) refers to drawpicture.o(.bss) for .bss
    drawpicture.o(i.Draw_Line) refers to drawpicture.o(i.Draw_YLine) for Draw_YLine
    drawpicture.o(i.Draw_Line) refers to drawpicture.o(i.Draw_XLine) for Draw_XLine
    drawpicture.o(i.Draw_Line) refers to drawpicture.o(i.Draw_Point) for Draw_Point
    drawpicture.o(i.Draw_Lump_fb) refers to drawpicture.o(i.Draw_GetPointColor) for Draw_GetPointColor
    drawpicture.o(i.Draw_Lump_fb) refers to drawpicture.o(i.Draw_Point) for Draw_Point
    drawpicture.o(i.Draw_Picture_logoRDS) refers to drawpicture.o(i.Draw_UpdateToLCD) for Draw_UpdateToLCD
    drawpicture.o(i.Draw_Picture_logoRDS) refers to drawpicture.o(.constdata) for .constdata
    drawpicture.o(i.Draw_Picture_logoRDS) refers to drawpicture.o(.bss) for .bss
    drawpicture.o(i.Draw_Point) refers to lcd19264 driverv20.o(i.LCD19264_Posbyte) for LCD19264_Posbyte
    drawpicture.o(i.Draw_Point) refers to drawpicture.o(.bss) for .bss
    drawpicture.o(i.Draw_Point_DDRAM) refers to drawpicture.o(.bss) for .bss
    drawpicture.o(i.Draw_Rect) refers to drawpicture.o(i.Draw_XLine) for Draw_XLine
    drawpicture.o(i.Draw_Rect) refers to drawpicture.o(i.Draw_YLine) for Draw_YLine
    drawpicture.o(i.Draw_String6X8) refers to drawpicture.o(i.Draw_Ascii6X8) for Draw_Ascii6X8
    drawpicture.o(i.Draw_UpdateToLCD) refers to lcd19264 driverv20.o(i.LCD19264_Posbyte) for LCD19264_Posbyte
    drawpicture.o(i.Draw_UpdateToLCD) refers to drawpicture.o(.bss) for .bss
    drawpicture.o(i.Draw_XLine) refers to drawpicture.o(i.Draw_Point) for Draw_Point
    drawpicture.o(i.Draw_YLine) refers to drawpicture.o(i.Draw_Point) for Draw_Point
    pt2314.o(i.I2CChkAck) refers to stm32f10x_gpio.o(i.GPIO_Init) for GPIO_Init
    pt2314.o(i.I2CChkAck) refers to stm32f10x_gpio.o(i.GPIO_SetBits) for GPIO_SetBits
    pt2314.o(i.I2CChkAck) refers to pt2314.o(i.WaitUs) for WaitUs
    pt2314.o(i.I2CChkAck) refers to stm32f10x_gpio.o(i.GPIO_ReadInputDataBit) for GPIO_ReadInputDataBit
    pt2314.o(i.I2CChkAck) refers to stm32f10x_gpio.o(i.GPIO_ResetBits) for GPIO_ResetBits
    pt2314.o(i.I2CStart) refers to stm32f10x_gpio.o(i.GPIO_SetBits) for GPIO_SetBits
    pt2314.o(i.I2CStart) refers to pt2314.o(i.WaitUs) for WaitUs
    pt2314.o(i.I2CStart) refers to stm32f10x_gpio.o(i.GPIO_ResetBits) for GPIO_ResetBits
    pt2314.o(i.I2CStop) refers to stm32f10x_gpio.o(i.GPIO_ResetBits) for GPIO_ResetBits
    pt2314.o(i.I2CStop) refers to stm32f10x_gpio.o(i.GPIO_SetBits) for GPIO_SetBits
    pt2314.o(i.I2CStop) refers to pt2314.o(i.WaitUs) for WaitUs
    pt2314.o(i.I2CWrite8Bit) refers to stm32f10x_gpio.o(i.GPIO_SetBits) for GPIO_SetBits
    pt2314.o(i.I2CWrite8Bit) refers to stm32f10x_gpio.o(i.GPIO_ResetBits) for GPIO_ResetBits
    pt2314.o(i.I2CWrite8Bit) refers to pt2314.o(i.WaitUs) for WaitUs
    pt2314.o(i.PT2314_Init) refers to stm32f10x_rcc.o(i.RCC_APB2PeriphClockCmd) for RCC_APB2PeriphClockCmd
    pt2314.o(i.PT2314_Init) refers to stm32f10x_gpio.o(i.GPIO_Init) for GPIO_Init
    pt2314.o(i.PT2314_Init) refers to stm32f10x_gpio.o(i.GPIO_SetBits) for GPIO_SetBits
    pt2314.o(i.PT2314_Init) refers to pt2314.o(i.PT2314_SetNRegs) for PT2314_SetNRegs
    pt2314.o(i.PT2314_Init) refers to pt2314.o(.data) for .data
    pt2314.o(i.PT2314_SetNRegs) refers to pt2314.o(i.I2CStart) for I2CStart
    pt2314.o(i.PT2314_SetNRegs) refers to pt2314.o(i.I2CWrite8Bit) for I2CWrite8Bit
    pt2314.o(i.PT2314_SetNRegs) refers to pt2314.o(i.I2CChkAck) for I2CChkAck
    pt2314.o(i.PT2314_SetNRegs) refers to pt2314.o(i.I2CStop) for I2CStop
    pt2314.o(i.PT2314_SetReg) refers to pt2314.o(i.I2CStart) for I2CStart
    pt2314.o(i.PT2314_SetReg) refers to pt2314.o(i.I2CWrite8Bit) for I2CWrite8Bit
    pt2314.o(i.PT2314_SetReg) refers to pt2314.o(i.I2CChkAck) for I2CChkAck
    pt2314.o(i.PT2314_SetReg) refers to pt2314.o(i.I2CStop) for I2CStop
    pt2314.o(i.PT2314_Setup_Bass) refers to pt2314.o(i.PT2314_SetReg) for PT2314_SetReg
    pt2314.o(i.PT2314_Setup_Bass) refers to pt2314.o(.data) for .data
    pt2314.o(i.PT2314_Setup_CVD) refers to pt2314.o(i.PT2314_SetReg) for PT2314_SetReg
    pt2314.o(i.PT2314_Setup_CVD) refers to pt2314.o(.data) for .data
    pt2314.o(i.PT2314_Setup_Treble) refers to pt2314.o(i.PT2314_SetReg) for PT2314_SetReg
    pt2314.o(i.PT2314_Setup_Treble) refers to pt2314.o(.data) for .data
    pt2314.o(i.PT2314_Setup_Volume) refers to pt2314.o(i.PT2314_SetReg) for PT2314_SetReg
    pt2314.o(i.PT2314_Setup_Volume) refers to pt2314.o(.data) for .data
    qn8027_driver.o(i.I2CChkAck) refers to stm32f10x_gpio.o(i.GPIO_Init) for GPIO_Init
    qn8027_driver.o(i.I2CChkAck) refers to stm32f10x_gpio.o(i.GPIO_SetBits) for GPIO_SetBits
    qn8027_driver.o(i.I2CChkAck) refers to qn8027_driver.o(i.WaitUs) for WaitUs
    qn8027_driver.o(i.I2CChkAck) refers to stm32f10x_gpio.o(i.GPIO_ReadInputDataBit) for GPIO_ReadInputDataBit
    qn8027_driver.o(i.I2CChkAck) refers to stm32f10x_gpio.o(i.GPIO_ResetBits) for GPIO_ResetBits
    qn8027_driver.o(i.I2CRead8Bit) refers to stm32f10x_gpio.o(i.GPIO_Init) for GPIO_Init
    qn8027_driver.o(i.I2CRead8Bit) refers to stm32f10x_gpio.o(i.GPIO_SetBits) for GPIO_SetBits
    qn8027_driver.o(i.I2CRead8Bit) refers to qn8027_driver.o(i.WaitUs) for WaitUs
    qn8027_driver.o(i.I2CRead8Bit) refers to stm32f10x_gpio.o(i.GPIO_ReadInputDataBit) for GPIO_ReadInputDataBit
    qn8027_driver.o(i.I2CRead8Bit) refers to stm32f10x_gpio.o(i.GPIO_ResetBits) for GPIO_ResetBits
    qn8027_driver.o(i.I2CSlave_NOACK) refers to stm32f10x_gpio.o(i.GPIO_SetBits) for GPIO_SetBits
    qn8027_driver.o(i.I2CSlave_NOACK) refers to qn8027_driver.o(i.WaitUs) for WaitUs
    qn8027_driver.o(i.I2CSlave_NOACK) refers to stm32f10x_gpio.o(i.GPIO_ResetBits) for GPIO_ResetBits
    qn8027_driver.o(i.I2CStart) refers to stm32f10x_gpio.o(i.GPIO_SetBits) for GPIO_SetBits
    qn8027_driver.o(i.I2CStart) refers to qn8027_driver.o(i.WaitUs) for WaitUs
    qn8027_driver.o(i.I2CStart) refers to stm32f10x_gpio.o(i.GPIO_ResetBits) for GPIO_ResetBits
    qn8027_driver.o(i.I2CStop) refers to stm32f10x_gpio.o(i.GPIO_ResetBits) for GPIO_ResetBits
    qn8027_driver.o(i.I2CStop) refers to stm32f10x_gpio.o(i.GPIO_SetBits) for GPIO_SetBits
    qn8027_driver.o(i.I2CStop) refers to qn8027_driver.o(i.WaitUs) for WaitUs
    qn8027_driver.o(i.I2CWrite8Bit) refers to stm32f10x_gpio.o(i.GPIO_SetBits) for GPIO_SetBits
    qn8027_driver.o(i.I2CWrite8Bit) refers to stm32f10x_gpio.o(i.GPIO_ResetBits) for GPIO_ResetBits
    qn8027_driver.o(i.I2CWrite8Bit) refers to qn8027_driver.o(i.WaitUs) for WaitUs
    qn8027_driver.o(i.QN8027_Init) refers to stm32f10x_rcc.o(i.RCC_APB2PeriphClockCmd) for RCC_APB2PeriphClockCmd
    qn8027_driver.o(i.QN8027_Init) refers to stm32f10x_gpio.o(i.GPIO_Init) for GPIO_Init
    qn8027_driver.o(i.QN8027_Init) refers to stm32f10x_gpio.o(i.GPIO_SetBits) for GPIO_SetBits
    qn8027_driver.o(i.QN8027_Init) refers to qn8027_driver.o(i.QN8027_WriteReg) for QN8027_WriteReg
    qn8027_driver.o(i.QN8027_Init) refers to qn8027_driver.o(i.QN8027_Delay) for QN8027_Delay
    qn8027_driver.o(i.QN8027_Init) refers to qn8027_driver.o(i.QndSetReg) for QndSetReg
    qn8027_driver.o(i.QN8027_Init) refers to qn8027_driver.o(i.QndRdsMode) for QndRdsMode
    qn8027_driver.o(i.QN8027_Init) refers to qn8027_driver.o(i.QndMute) for QndMute
    qn8027_driver.o(i.QN8027_MultidataRead) refers to qn8027_driver.o(i.I2CStart) for I2CStart
    qn8027_driver.o(i.QN8027_MultidataRead) refers to qn8027_driver.o(i.I2CWrite8Bit) for I2CWrite8Bit
    qn8027_driver.o(i.QN8027_MultidataRead) refers to qn8027_driver.o(i.I2CChkAck) for I2CChkAck
    qn8027_driver.o(i.QN8027_MultidataRead) refers to qn8027_driver.o(i.I2CRead8Bit) for I2CRead8Bit
    qn8027_driver.o(i.QN8027_MultidataRead) refers to stm32f10x_gpio.o(i.GPIO_ResetBits) for GPIO_ResetBits
    qn8027_driver.o(i.QN8027_MultidataRead) refers to stm32f10x_gpio.o(i.GPIO_SetBits) for GPIO_SetBits
    qn8027_driver.o(i.QN8027_MultidataRead) refers to qn8027_driver.o(i.WaitUs) for WaitUs
    qn8027_driver.o(i.QN8027_MultidataRead) refers to qn8027_driver.o(i.I2CSlave_NOACK) for I2CSlave_NOACK
    qn8027_driver.o(i.QN8027_MultidataRead) refers to qn8027_driver.o(i.I2CStop) for I2CStop
    qn8027_driver.o(i.QN8027_MultidataRead) refers to qn8027_driver.o(.data) for .data
    qn8027_driver.o(i.QN8027_MultidataWrite) refers to qn8027_driver.o(i.I2CStart) for I2CStart
    qn8027_driver.o(i.QN8027_MultidataWrite) refers to qn8027_driver.o(i.I2CWrite8Bit) for I2CWrite8Bit
    qn8027_driver.o(i.QN8027_MultidataWrite) refers to qn8027_driver.o(i.I2CChkAck) for I2CChkAck
    qn8027_driver.o(i.QN8027_MultidataWrite) refers to qn8027_driver.o(i.I2CStop) for I2CStop
    qn8027_driver.o(i.QN8027_MultidataWrite) refers to qn8027_driver.o(.data) for .data
    qn8027_driver.o(i.QN8027_ReadReg) refers to qn8027_driver.o(i.I2CStart) for I2CStart
    qn8027_driver.o(i.QN8027_ReadReg) refers to qn8027_driver.o(i.I2CWrite8Bit) for I2CWrite8Bit
    qn8027_driver.o(i.QN8027_ReadReg) refers to qn8027_driver.o(i.I2CChkAck) for I2CChkAck
    qn8027_driver.o(i.QN8027_ReadReg) refers to qn8027_driver.o(i.I2CRead8Bit) for I2CRead8Bit
    qn8027_driver.o(i.QN8027_ReadReg) refers to qn8027_driver.o(i.I2CSlave_NOACK) for I2CSlave_NOACK
    qn8027_driver.o(i.QN8027_ReadReg) refers to qn8027_driver.o(i.I2CStop) for I2CStop
    qn8027_driver.o(i.QN8027_ReadReg) refers to qn8027_driver.o(.data) for .data
    qn8027_driver.o(i.QN8027_SetFMChannel) refers to qn8027_driver.o(i.QN8027_WriteReg) for QN8027_WriteReg
    qn8027_driver.o(i.QN8027_WriteReg) refers to qn8027_driver.o(i.I2CStart) for I2CStart
    qn8027_driver.o(i.QN8027_WriteReg) refers to qn8027_driver.o(i.I2CWrite8Bit) for I2CWrite8Bit
    qn8027_driver.o(i.QN8027_WriteReg) refers to qn8027_driver.o(i.I2CChkAck) for I2CChkAck
    qn8027_driver.o(i.QN8027_WriteReg) refers to qn8027_driver.o(i.I2CStop) for I2CStop
    qn8027_driver.o(i.QN8027_WriteReg) refers to qn8027_driver.o(.data) for .data
    qn8027_driver.o(i.QNd8027_SetChannel) refers to qn8027_driver.o(i.QndSetReg) for QndSetReg
    qn8027_driver.o(i.QNd8027_SetChannel) refers to qn8027_driver.o(i.QN8027_WriteReg) for QN8027_WriteReg
    qn8027_driver.o(i.QNd8027_SetChannel) refers to qn8027_driver.o(.data) for .data
    qn8027_driver.o(i.QNd8027_SetChannel) refers to app.o(.data) for Reg0_save
    qn8027_driver.o(i.QndCapBankTuning) refers to qn8027_driver.o(i.QN8027_WriteReg) for QN8027_WriteReg
    qn8027_driver.o(i.QndCapBankTuning) refers to qn8027_driver.o(i.QN8027_ReadReg) for QN8027_ReadReg
    qn8027_driver.o(i.QndMute) refers to qn8027_driver.o(i.QndSetReg) for QndSetReg
    qn8027_driver.o(i.QndRdsMode) refers to qn8027_driver.o(i.QN8027_WriteReg) for QN8027_WriteReg
    qn8027_driver.o(i.QndRdsMode) refers to qn8027_driver.o(i.QndSetReg) for QndSetReg
    qn8027_driver.o(i.QndSetReg) refers to qn8027_driver.o(i.QN8027_ReadReg) for QN8027_ReadReg
    qn8027_driver.o(i.QndSetReg) refers to qn8027_driver.o(i.QN8027_WriteReg) for QN8027_WriteReg
    qn8027_driver.o(i.QndSetReg) refers to qn8027_driver.o(.data) for .data
    stm32f10x_it.o(i.RTC_IRQHandler) refers to stm32f10x_rtc.o(i.RTC_GetITStatus) for RTC_GetITStatus
    stm32f10x_it.o(i.RTC_IRQHandler) refers to stm32f10x_rtc.o(i.RTC_ClearITPendingBit) for RTC_ClearITPendingBit
    stm32f10x_it.o(i.RTC_IRQHandler) refers to stm32f10x_rtc.o(i.RTC_WaitForLastTask) for RTC_WaitForLastTask
    stm32f10x_it.o(i.RTC_IRQHandler) refers to stm32f10x_rtc.o(i.RTC_GetCounter) for RTC_GetCounter
    stm32f10x_it.o(i.RTC_IRQHandler) refers to stm32f10x_rtc.o(i.RTC_SetCounter) for RTC_SetCounter
    stm32f10x_it.o(i.RTC_IRQHandler) refers to mainv1.o(.data) for SystemTime_SecUpdate_Flag
    stm32f10x_it.o(i.RTC_IRQHandler) refers to mainv1.o(.data) for Disconnect_pc
    stm32f10x_it.o(i.RTC_IRQHandler) refers to app.o(.data) for pc_area_group_terminal_set_flag
    stm32f10x_it.o(i.TIM3_IRQHandler) refers to stm32f10x_tim.o(i.TIM_ClearITPendingBit) for TIM_ClearITPendingBit
    stm32f10x_it.o(i.TIM3_IRQHandler) refers to anjian.o(i.KEY_UP_delayct) for KEY_UP_delayct
    stm32f10x_it.o(i.TIM3_IRQHandler) refers to anjian.o(i.KEY_DOWN_delayct) for KEY_DOWN_delayct
    stm32f10x_it.o(i.TIM3_IRQHandler) refers to anjian.o(i.KEY_LEFT_delayct) for KEY_LEFT_delayct
    stm32f10x_it.o(i.TIM3_IRQHandler) refers to anjian.o(i.KEY_RIGHT_delayct) for KEY_RIGHT_delayct
    stm32f10x_it.o(i.TIM3_IRQHandler) refers to mainv1.o(.data) for sendstate_Time_Count
    stm32f10x_it.o(i.TIM3_IRQHandler) refers to mainv1.o(.data) for Menu_Timeout_Count
    stm32f10x_it.o(i.USART1_IRQHandler) refers to stm32f10x_usart.o(i.USART_GetITStatus) for USART_GetITStatus
    stm32f10x_it.o(i.USART1_IRQHandler) refers to stm32f10x_usart.o(i.USART_ReceiveData) for USART_ReceiveData
    stm32f10x_it.o(i.USART1_IRQHandler) refers to stm32f10x_usart.o(i.USART_SendData) for USART_SendData
    stm32f10x_it.o(i.USART1_IRQHandler) refers to stm32f10x_usart.o(i.USART_ITConfig) for USART_ITConfig
    stm32f10x_it.o(i.USART1_IRQHandler) refers to mainv1.o(.data) for packet_head
    stm32f10x_it.o(i.USART1_IRQHandler) refers to mainv1.o(.data) for packet_rct
    stm32f10x_it.o(i.USART1_IRQHandler) refers to mainv1.o(.data) for packet_len
    stm32f10x_it.o(i.USART1_IRQHandler) refers to mainv1.o(.data) for packet_xor
    stm32f10x_it.o(i.USART1_IRQHandler) refers to mainv1.o(.bss) for packet_rbuf
    stm32f10x_it.o(i.USART1_IRQHandler) refers to mainv1.o(.data) for packet_R_OK
    stm32f10x_it.o(i.USART1_IRQHandler) refers to mainv1.o(.data) for packet_tct
    stm32f10x_it.o(i.USART1_IRQHandler) refers to mainv1.o(.data) for packet_sendsize
    stm32f10x_it.o(i.USART1_IRQHandler) refers to mainv1.o(.bss) for packet_tbuf
    stm32f10x_it.o(i.USART1_IRQHandler) refers to mainv1.o(.data) for packet_T_OK
    stm32f10x_it.o(i.USART2_IRQHandler) refers to stm32f10x_usart.o(i.USART_GetITStatus) for USART_GetITStatus
    stm32f10x_it.o(i.USART2_IRQHandler) refers to stm32f10x_usart.o(i.USART_ReceiveData) for USART_ReceiveData
    stm32f10x_it.o(i.USART2_IRQHandler) refers to stm32f10x_usart.o(i.USART_SendData) for USART_SendData
    stm32f10x_it.o(i.USART2_IRQHandler) refers to stm32f10x_usart.o(i.USART_ITConfig) for USART_ITConfig
    stm32f10x_it.o(i.USART2_IRQHandler) refers to mainv1.o(.data) for packet_head2
    stm32f10x_it.o(i.USART2_IRQHandler) refers to mainv1.o(.data) for packet_rct2
    stm32f10x_it.o(i.USART2_IRQHandler) refers to mainv1.o(.data) for packet_len2
    stm32f10x_it.o(i.USART2_IRQHandler) refers to mainv1.o(.bss) for packet_rbuf2
    stm32f10x_it.o(i.USART2_IRQHandler) refers to mainv1.o(.data) for packet_xor2
    stm32f10x_it.o(i.USART2_IRQHandler) refers to mainv1.o(.data) for packet_R_OK2
    stm32f10x_it.o(i.USART2_IRQHandler) refers to mainv1.o(.data) for packet_tct2
    stm32f10x_it.o(i.USART2_IRQHandler) refers to mainv1.o(.data) for packet_sendsize2
    stm32f10x_it.o(i.USART2_IRQHandler) refers to mainv1.o(.data) for packet_tbuf2
    stm32f10x_it.o(i.USART2_IRQHandler) refers to mainv1.o(.data) for packet_T_OK2
    show.o(i.SetingWindos_DestroyFMchValue) refers to drawpicture.o(i.Draw_Fill) for Draw_Fill
    show.o(i.SetingWindos_DestroyPowerValue) refers to drawpicture.o(i.Draw_Fill) for Draw_Fill
    show.o(i.SetingWindos_ShowFMchValue) refers to drawpicture.o(i.Draw_Ascii6X8) for Draw_Ascii6X8
    show.o(i.SetingWindos_ShowPowerValue) refers to drawpicture.o(i.Draw_Ascii6X8) for Draw_Ascii6X8
    show.o(i.Show_FM) refers to drawpicture.o(i.Draw_String6X8) for Draw_String6X8
    show.o(i.Show_FSRF_Logo) refers to show.o(i.Show_Picture) for Show_Picture
    show.o(i.Show_FSRF_Logo) refers to show.o(.constdata) for .constdata
    show.o(i.Show_I) refers to drawpicture.o(i.Draw_String6X8) for Draw_String6X8
    show.o(i.Show_P) refers to drawpicture.o(i.Draw_String6X8) for Draw_String6X8
    show.o(i.Show_PEVal) refers to drawpicture.o(i.Draw_String6X8) for Draw_String6X8
    show.o(i.Show_Picture) refers to drawpicture.o(i.Draw_Point) for Draw_Point
    show.o(i.Show_RDS) refers to drawpicture.o(i.Draw_String6X8) for Draw_String6X8
    show.o(i.Show_RDS) refers to show.o(i.Show_Picture) for Show_Picture
    show.o(i.Show_RDS) refers to show.o(.constdata) for .constdata
    show.o(i.Show_RDS_logox) refers to show.o(i.Show_Picture) for Show_Picture
    show.o(i.Show_RDS_logox) refers to show.o(.constdata) for .constdata
    show.o(i.Show_RP) refers to drawpicture.o(i.Draw_String6X8) for Draw_String6X8
    show.o(i.Show_SWR) refers to drawpicture.o(i.Draw_String6X8) for Draw_String6X8
    show.o(i.Show_T) refers to drawpicture.o(i.Draw_String6X8) for Draw_String6X8
    show.o(i.Show_T) refers to show.o(i.Show_Picture) for Show_Picture
    show.o(i.Show_T) refers to show.o(.constdata) for .constdata
    show.o(i.Show_TX) refers to drawpicture.o(i.Draw_String6X8) for Draw_String6X8
    show.o(i.Show_TX) refers to show.o(i.Show_Picture) for Show_Picture
    show.o(i.Show_TX) refers to show.o(.constdata) for .constdata
    show.o(i.Show_Time) refers to drawpicture.o(i.Draw_String6X8) for Draw_String6X8
    show.o(i.Show_VOLB) refers to drawpicture.o(i.Draw_String6X8) for Draw_String6X8
    show.o(i.Show_VOLB) refers to drawpicture.o(i.Draw_Rect) for Draw_Rect
    show.o(i.Show_VOLB) refers to drawpicture.o(i.Draw_Line) for Draw_Line
    show.o(i.Show_VOLH) refers to drawpicture.o(i.Draw_String6X8) for Draw_String6X8
    show.o(i.Show_VOLH) refers to drawpicture.o(i.Draw_Rect) for Draw_Rect
    show.o(i.Show_VOLH) refers to drawpicture.o(i.Draw_Line) for Draw_Line
    show.o(i.Show_Volume) refers to drawpicture.o(i.Draw_String6X8) for Draw_String6X8
    anjian.o(i.AUX_INPUT_STATUS) refers to stm32f10x_exti.o(i.EXTI_GetFlagStatus) for EXTI_GetFlagStatus
    anjian.o(i.AUX_INPUT_STATUS) refers to stm32f10x_exti.o(i.EXTI_ClearFlag) for EXTI_ClearFlag
    anjian.o(i.KEY_DOWN_STATUS) refers to stm32f10x_exti.o(i.EXTI_GetFlagStatus) for EXTI_GetFlagStatus
    anjian.o(i.KEY_DOWN_STATUS) refers to stm32f10x_exti.o(i.EXTI_ClearFlag) for EXTI_ClearFlag
    anjian.o(i.KEY_DOWN_STATUS) refers to anjian.o(.data) for .data
    anjian.o(i.KEY_DOWN_delayct) refers to stm32f10x_gpio.o(i.GPIO_ReadInputDataBit) for GPIO_ReadInputDataBit
    anjian.o(i.KEY_DOWN_delayct) refers to anjian.o(.data) for .data
    anjian.o(i.KEY_LEFT_STATUS) refers to stm32f10x_exti.o(i.EXTI_GetFlagStatus) for EXTI_GetFlagStatus
    anjian.o(i.KEY_LEFT_STATUS) refers to stm32f10x_exti.o(i.EXTI_ClearFlag) for EXTI_ClearFlag
    anjian.o(i.KEY_LEFT_STATUS) refers to anjian.o(.data) for .data
    anjian.o(i.KEY_LEFT_delayct) refers to stm32f10x_gpio.o(i.GPIO_ReadInputDataBit) for GPIO_ReadInputDataBit
    anjian.o(i.KEY_LEFT_delayct) refers to anjian.o(.data) for .data
    anjian.o(i.KEY_MENU_STATUS) refers to stm32f10x_exti.o(i.EXTI_GetFlagStatus) for EXTI_GetFlagStatus
    anjian.o(i.KEY_MENU_STATUS) refers to stm32f10x_exti.o(i.EXTI_ClearFlag) for EXTI_ClearFlag
    anjian.o(i.KEY_OK_STATUS) refers to stm32f10x_exti.o(i.EXTI_GetFlagStatus) for EXTI_GetFlagStatus
    anjian.o(i.KEY_OK_STATUS) refers to stm32f10x_exti.o(i.EXTI_ClearFlag) for EXTI_ClearFlag
    anjian.o(i.KEY_RDS_STATUS) refers to stm32f10x_exti.o(i.EXTI_GetFlagStatus) for EXTI_GetFlagStatus
    anjian.o(i.KEY_RDS_STATUS) refers to stm32f10x_exti.o(i.EXTI_ClearFlag) for EXTI_ClearFlag
    anjian.o(i.KEY_RIGHT_STATUS) refers to stm32f10x_exti.o(i.EXTI_GetFlagStatus) for EXTI_GetFlagStatus
    anjian.o(i.KEY_RIGHT_STATUS) refers to stm32f10x_exti.o(i.EXTI_ClearFlag) for EXTI_ClearFlag
    anjian.o(i.KEY_RIGHT_STATUS) refers to anjian.o(.data) for .data
    anjian.o(i.KEY_RIGHT_delayct) refers to stm32f10x_gpio.o(i.GPIO_ReadInputDataBit) for GPIO_ReadInputDataBit
    anjian.o(i.KEY_RIGHT_delayct) refers to anjian.o(.data) for .data
    anjian.o(i.KEY_UP_STATUS) refers to stm32f10x_exti.o(i.EXTI_GetFlagStatus) for EXTI_GetFlagStatus
    anjian.o(i.KEY_UP_STATUS) refers to stm32f10x_exti.o(i.EXTI_ClearFlag) for EXTI_ClearFlag
    anjian.o(i.KEY_UP_STATUS) refers to anjian.o(.data) for .data
    anjian.o(i.KEY_UP_delayct) refers to stm32f10x_gpio.o(i.GPIO_ReadInputDataBit) for GPIO_ReadInputDataBit
    anjian.o(i.KEY_UP_delayct) refers to anjian.o(.data) for .data
    anjian.o(i.MP3_INPUT_STATUS) refers to stm32f10x_exti.o(i.EXTI_GetFlagStatus) for EXTI_GetFlagStatus
    anjian.o(i.MP3_INPUT_STATUS) refers to stm32f10x_exti.o(i.EXTI_ClearFlag) for EXTI_ClearFlag
    anjian.o(i.PTT_INPUT_STATUS) refers to stm32f10x_exti.o(i.EXTI_GetFlagStatus) for EXTI_GetFlagStatus
    anjian.o(i.PTT_INPUT_STATUS) refers to stm32f10x_exti.o(i.EXTI_ClearFlag) for EXTI_ClearFlag
    dac5615.o(i.DAC5615Out) refers to stm32f10x_gpio.o(i.GPIO_ResetBits) for GPIO_ResetBits
    dac5615.o(i.DAC5615Out) refers to stm32f10x_gpio.o(i.GPIO_SetBits) for GPIO_SetBits
    dac5615.o(i.DAC5615Out) refers to dac5615.o(i.DAC5615delay) for DAC5615delay
    dac5615.o(i.DAC5615_Init) refers to stm32f10x_rcc.o(i.RCC_APB2PeriphClockCmd) for RCC_APB2PeriphClockCmd
    dac5615.o(i.DAC5615_Init) refers to stm32f10x_gpio.o(i.GPIO_Init) for GPIO_Init
    dac5615.o(i.DAC5615_Init) refers to stm32f10x_gpio.o(i.GPIO_ResetBits) for GPIO_ResetBits
    24c32.o(i.EEPROM_Read1Byte) refers to 24c32.o(i.I2CStart) for I2CStart
    24c32.o(i.EEPROM_Read1Byte) refers to 24c32.o(i.I2CWrite8Bit) for I2CWrite8Bit
    24c32.o(i.EEPROM_Read1Byte) refers to 24c32.o(i.I2CChkAck) for I2CChkAck
    24c32.o(i.EEPROM_Read1Byte) refers to 24c32.o(i.I2CRead8Bit) for I2CRead8Bit
    24c32.o(i.EEPROM_Read1Byte) refers to 24c32.o(i.I2CSlave_NOACK) for I2CSlave_NOACK
    24c32.o(i.EEPROM_Read1Byte) refers to 24c32.o(i.I2CStop) for I2CStop
    24c32.o(i.EEPROM_Read1Byte) refers to 24c32.o(.data) for .data
    24c32.o(i.EEPROM_ReadBytes) refers to 24c32.o(i.I2CStart) for I2CStart
    24c32.o(i.EEPROM_ReadBytes) refers to 24c32.o(i.I2CWrite8Bit) for I2CWrite8Bit
    24c32.o(i.EEPROM_ReadBytes) refers to 24c32.o(i.I2CChkAck) for I2CChkAck
    24c32.o(i.EEPROM_ReadBytes) refers to 24c32.o(i.I2CRead8Bit) for I2CRead8Bit
    24c32.o(i.EEPROM_ReadBytes) refers to stm32f10x_gpio.o(i.GPIO_ResetBits) for GPIO_ResetBits
    24c32.o(i.EEPROM_ReadBytes) refers to stm32f10x_gpio.o(i.GPIO_SetBits) for GPIO_SetBits
    24c32.o(i.EEPROM_ReadBytes) refers to 24c32.o(i.WaitUs) for WaitUs
    24c32.o(i.EEPROM_ReadBytes) refers to 24c32.o(i.I2CSlave_NOACK) for I2CSlave_NOACK
    24c32.o(i.EEPROM_ReadBytes) refers to 24c32.o(i.I2CStop) for I2CStop
    24c32.o(i.EEPROM_ReadBytes) refers to 24c32.o(.data) for .data
    24c32.o(i.EEPROM_Write1Byte) refers to 24c32.o(i.I2CStart) for I2CStart
    24c32.o(i.EEPROM_Write1Byte) refers to 24c32.o(i.I2CWrite8Bit) for I2CWrite8Bit
    24c32.o(i.EEPROM_Write1Byte) refers to 24c32.o(i.I2CChkAck) for I2CChkAck
    24c32.o(i.EEPROM_Write1Byte) refers to 24c32.o(i.I2CStop) for I2CStop
    24c32.o(i.EEPROM_Write1Byte) refers to 24c32.o(.data) for .data
    24c32.o(i.EEPROM_WriteBytes) refers to 24c32.o(i.I2CStart) for I2CStart
    24c32.o(i.EEPROM_WriteBytes) refers to 24c32.o(i.I2CWrite8Bit) for I2CWrite8Bit
    24c32.o(i.EEPROM_WriteBytes) refers to 24c32.o(i.I2CChkAck) for I2CChkAck
    24c32.o(i.EEPROM_WriteBytes) refers to 24c32.o(i.I2CStop) for I2CStop
    24c32.o(i.EEPROM_WriteBytes) refers to 24c32.o(.data) for .data
    24c32.o(i.I2CChkAck) refers to stm32f10x_gpio.o(i.GPIO_Init) for GPIO_Init
    24c32.o(i.I2CChkAck) refers to stm32f10x_gpio.o(i.GPIO_SetBits) for GPIO_SetBits
    24c32.o(i.I2CChkAck) refers to 24c32.o(i.WaitUs) for WaitUs
    24c32.o(i.I2CChkAck) refers to stm32f10x_gpio.o(i.GPIO_ReadInputDataBit) for GPIO_ReadInputDataBit
    24c32.o(i.I2CChkAck) refers to stm32f10x_gpio.o(i.GPIO_ResetBits) for GPIO_ResetBits
    24c32.o(i.I2CRead8Bit) refers to stm32f10x_gpio.o(i.GPIO_Init) for GPIO_Init
    24c32.o(i.I2CRead8Bit) refers to stm32f10x_gpio.o(i.GPIO_SetBits) for GPIO_SetBits
    24c32.o(i.I2CRead8Bit) refers to 24c32.o(i.WaitUs) for WaitUs
    24c32.o(i.I2CRead8Bit) refers to stm32f10x_gpio.o(i.GPIO_ReadInputDataBit) for GPIO_ReadInputDataBit
    24c32.o(i.I2CRead8Bit) refers to stm32f10x_gpio.o(i.GPIO_ResetBits) for GPIO_ResetBits
    24c32.o(i.I2CSlave_NOACK) refers to stm32f10x_gpio.o(i.GPIO_SetBits) for GPIO_SetBits
    24c32.o(i.I2CSlave_NOACK) refers to 24c32.o(i.WaitUs) for WaitUs
    24c32.o(i.I2CSlave_NOACK) refers to stm32f10x_gpio.o(i.GPIO_ResetBits) for GPIO_ResetBits
    24c32.o(i.I2CStart) refers to stm32f10x_gpio.o(i.GPIO_SetBits) for GPIO_SetBits
    24c32.o(i.I2CStart) refers to 24c32.o(i.WaitUs) for WaitUs
    24c32.o(i.I2CStart) refers to stm32f10x_gpio.o(i.GPIO_ResetBits) for GPIO_ResetBits
    24c32.o(i.I2CStop) refers to stm32f10x_gpio.o(i.GPIO_ResetBits) for GPIO_ResetBits
    24c32.o(i.I2CStop) refers to stm32f10x_gpio.o(i.GPIO_SetBits) for GPIO_SetBits
    24c32.o(i.I2CStop) refers to 24c32.o(i.WaitUs) for WaitUs
    24c32.o(i.I2CWrite8Bit) refers to stm32f10x_gpio.o(i.GPIO_SetBits) for GPIO_SetBits
    24c32.o(i.I2CWrite8Bit) refers to stm32f10x_gpio.o(i.GPIO_ResetBits) for GPIO_ResetBits
    24c32.o(i.I2CWrite8Bit) refers to 24c32.o(i.WaitUs) for WaitUs
    app.o(i.Answer_handshake) refers to stm32f10x_usart.o(i.USART_ITConfig) for USART_ITConfig
    app.o(i.Answer_handshake) refers to mainv1.o(.bss) for packet_tbuf
    app.o(i.Answer_handshake) refers to mainv1.o(.data) for packet_sendsize
    app.o(i.Answer_handshake) refers to mainv1.o(.data) for packet_tct
    app.o(i.Answer_handshake) refers to mainv1.o(.data) for packet_T_OK
    app.o(i.Area_Name_Save) refers to 24c32.o(i.EEPROM_WriteBytes) for EEPROM_WriteBytes
    app.o(i.Area_Name_Save) refers to mainv1.o(.data) for Area_Name
    app.o(i.Area_Name_Save) refers to rt_time.o(i.rt_dly_wait) for rt_dly_wait
    app.o(i.Area_Name_Update) refers to 24c32.o(i.EEPROM_ReadBytes) for EEPROM_ReadBytes
    app.o(i.Area_Name_Update) refers to mainv1.o(.data) for Area_Name
    app.o(i.Area_Name_Update) refers to rt_time.o(i.rt_dly_wait) for rt_dly_wait
    app.o(i.Check_QN8027_tx) refers to qn8027_driver.o(i.QN8027_ReadReg) for QN8027_ReadReg
    app.o(i.Check_QN8027_tx) refers to app.o(.data) for .data
    app.o(i.Dveid_Int) refers to app.o(.data) for .data
    app.o(i.PCRDS_set) refers to app.o(i.RDSData_Verify2) for RDSData_Verify2
    app.o(i.PCRDS_set) refers to qn8027_driver.o(i.QN8027_WriteReg) for QN8027_WriteReg
    app.o(i.PCRDS_set) refers to app.o(i.toggle) for toggle
    app.o(i.PCRDS_set) refers to app.o(.data) for .data
    app.o(i.PS_Name_Save) refers to 24c32.o(i.EEPROM_WriteBytes) for EEPROM_WriteBytes
    app.o(i.PS_Name_Save) refers to mainv1.o(.data) for PS_Name
    app.o(i.PS_Name_Save) refers to rt_time.o(i.rt_dly_wait) for rt_dly_wait
    app.o(i.PS_Name_Update) refers to 24c32.o(i.EEPROM_ReadBytes) for EEPROM_ReadBytes
    app.o(i.PS_Name_Update) refers to mainv1.o(.data) for PS_Name
    app.o(i.PS_Name_Update) refers to rt_time.o(i.rt_dly_wait) for rt_dly_wait
    app.o(i.RDS_DevicesGroup_Mode_Save) refers to 24c32.o(i.EEPROM_WriteBytes) for EEPROM_WriteBytes
    app.o(i.RDS_DevicesGroup_Mode_Save) refers to mainv1.o(.bss) for RDS_DevicesGroup_Mode
    app.o(i.RDS_DevicesGroup_Mode_Save) refers to rt_time.o(i.rt_dly_wait) for rt_dly_wait
    app.o(i.RDS_DevicesGroup_Mode_Update) refers to 24c32.o(i.EEPROM_ReadBytes) for EEPROM_ReadBytes
    app.o(i.RDS_DevicesGroup_Mode_Update) refers to mainv1.o(.bss) for RDS_DevicesGroup_Mode
    app.o(i.RDS_DevicesGroup_Mode_Update) refers to rt_time.o(i.rt_dly_wait) for rt_dly_wait
    app.o(i.RDS_task) refers to app.o(i.Dveid_Int) for Dveid_Int
    app.o(i.RDS_task) refers to app.o(i.txt_int) for txt_int
    app.o(i.RDS_task) refers to adc.o(i.adc_int) for adc_int
    app.o(i.RDS_task) refers to app.o(i.PS_Name_Update) for PS_Name_Update
    app.o(i.RDS_task) refers to app.o(i.Area_Name_Update) for Area_Name_Update
    app.o(i.RDS_task) refers to app.o(i.ps_int) for ps_int
    app.o(i.RDS_task) refers to app.o(i.RDS_DevicesGroup_Mode_Update) for RDS_DevicesGroup_Mode_Update
    app.o(i.RDS_task) refers to mainv1.o(.data) for area_num
    app.o(i.RDS_task) refers to app.o(.bss) for .bss
    app.o(i.RDS_task) refers to app.o(.data) for .data
    app.o(i.RDS_task) refers to rt_mutex.o(i.rt_mut_init) for rt_mut_init
    app.o(i.RDS_task) refers to app.o(i.RDSsend_IDNum_task) for RDSsend_IDNum_task
    app.o(i.RDS_task) refers to rt_task.o(i.rt_tsk_create) for rt_tsk_create
    app.o(i.RDS_task) refers to app.o(i.RDSsend_Volume_task) for RDSsend_Volume_task
    app.o(i.RDS_task) refers to app.o(i.RDSsend_txt_task) for RDSsend_txt_task
    app.o(i.RDS_task) refers to rt_task.o(i.rt_tsk_delete) for rt_tsk_delete
    app.o(i.RDSsend_IDNum) refers to app.o(i.RDSData_Verify2) for RDSData_Verify2
    app.o(i.RDSsend_IDNum) refers to qn8027_driver.o(i.QN8027_WriteReg) for QN8027_WriteReg
    app.o(i.RDSsend_IDNum) refers to app.o(i.toggle) for toggle
    app.o(i.RDSsend_IDNum) refers to app.o(.data) for .data
    app.o(i.RDSsend_IDNum_task) refers to app.o(i.Check_QN8027_tx) for Check_QN8027_tx
    app.o(i.RDSsend_IDNum_task) refers to app.o(i.RDSsend_NULL) for RDSsend_NULL
    app.o(i.RDSsend_IDNum_task) refers to app.o(i.RDSsend_state) for RDSsend_state
    app.o(i.RDSsend_IDNum_task) refers to app.o(i.RDSsend_area_allset) for RDSsend_area_allset
    app.o(i.RDSsend_IDNum_task) refers to app.o(i.PCRDS_set) for PCRDS_set
    app.o(i.RDSsend_IDNum_task) refers to mainv1.o(.data) for sendstate_Time_Count
    app.o(i.RDSsend_IDNum_task) refers to app.o(.data) for .data
    app.o(i.RDSsend_IDNum_task) refers to rt_time.o(i.rt_dly_wait) for rt_dly_wait
    app.o(i.RDSsend_NULL) refers to app.o(i.RDSData_Verify2) for RDSData_Verify2
    app.o(i.RDSsend_NULL) refers to qn8027_driver.o(i.QN8027_WriteReg) for QN8027_WriteReg
    app.o(i.RDSsend_NULL) refers to app.o(i.toggle) for toggle
    app.o(i.RDSsend_NULL) refers to app.o(.data) for .data
    app.o(i.RDSsend_PS) refers to app.o(i.RDSData_Verify2) for RDSData_Verify2
    app.o(i.RDSsend_PS) refers to qn8027_driver.o(i.QN8027_WriteReg) for QN8027_WriteReg
    app.o(i.RDSsend_PS) refers to app.o(i.toggle) for toggle
    app.o(i.RDSsend_PS) refers to app.o(.bss) for .bss
    app.o(i.RDSsend_PS) refers to app.o(.data) for .data
    app.o(i.RDSsend_Volume) refers to app.o(i.RDSData_Verify2) for RDSData_Verify2
    app.o(i.RDSsend_Volume) refers to qn8027_driver.o(i.QN8027_WriteReg) for QN8027_WriteReg
    app.o(i.RDSsend_Volume) refers to app.o(i.toggle) for toggle
    app.o(i.RDSsend_Volume) refers to app.o(.data) for .data
    app.o(i.RDSsend_Volume_task) refers to app.o(i.Check_QN8027_tx) for Check_QN8027_tx
    app.o(i.RDSsend_Volume_task) refers to app.o(i.RDSsend_pty) for RDSsend_pty
    app.o(i.RDSsend_Volume_task) refers to app.o(i.RDSsend_PS) for RDSsend_PS
    app.o(i.RDSsend_Volume_task) refers to app.o(.data) for .data
    app.o(i.RDSsend_Volume_task) refers to rt_time.o(i.rt_dly_wait) for rt_dly_wait
    app.o(i.RDSsend_area_allset) refers to app.o(i.RDSData_Verify2) for RDSData_Verify2
    app.o(i.RDSsend_area_allset) refers to qn8027_driver.o(i.QN8027_WriteReg) for QN8027_WriteReg
    app.o(i.RDSsend_area_allset) refers to app.o(i.toggle) for toggle
    app.o(i.RDSsend_area_allset) refers to app.o(.data) for .data
    app.o(i.RDSsend_pty) refers to app.o(i.RDSData_Verify2) for RDSData_Verify2
    app.o(i.RDSsend_pty) refers to qn8027_driver.o(i.QN8027_WriteReg) for QN8027_WriteReg
    app.o(i.RDSsend_pty) refers to app.o(i.toggle) for toggle
    app.o(i.RDSsend_pty) refers to mainv1.o(.data) for pty_num
    app.o(i.RDSsend_state) refers to app.o(i.RDSData_Verify2) for RDSData_Verify2
    app.o(i.RDSsend_state) refers to qn8027_driver.o(i.QN8027_WriteReg) for QN8027_WriteReg
    app.o(i.RDSsend_state) refers to app.o(i.toggle) for toggle
    app.o(i.RDSsend_state) refers to app.o(.data) for .data
    app.o(i.RDSsend_state) refers to mainv1.o(.bss) for RDS_DevicesGroup_Mode
    app.o(i.RDSsend_state) refers to mainv1.o(.data) for area_num
    app.o(i.RDSsend_state) refers to mainv1.o(.data) for sendstate_Time_Count
    app.o(i.RDSsend_txt) refers to app.o(i.RDSData_Verify2) for RDSData_Verify2
    app.o(i.RDSsend_txt) refers to qn8027_driver.o(i.QN8027_WriteReg) for QN8027_WriteReg
    app.o(i.RDSsend_txt) refers to app.o(i.toggle) for toggle
    app.o(i.RDSsend_txt) refers to app.o(.data) for .data
    app.o(i.RDSsend_txt) refers to app.o(.bss) for .bss
    app.o(i.RDSsend_txt_task) refers to app.o(i.Check_QN8027_tx) for Check_QN8027_tx
    app.o(i.RDSsend_txt_task) refers to app.o(i.RDSsend_txt) for RDSsend_txt
    app.o(i.RDSsend_txt_task) refers to app.o(.data) for .data
    app.o(i.RDSsend_txt_task) refers to rt_time.o(i.rt_dly_wait) for rt_dly_wait
    app.o(i.Receive_areastate_int) refers to rt_memcpy_v6.o(.text) for __aeabi_memcpy
    app.o(i.Receive_areastate_int) refers to mainv1.o(.bss) for packet_rbuf
    app.o(i.Receive_areastate_int) refers to app.o(.data) for .data
    app.o(i.Receive_areastate_int) refers to app.o(.bss) for .bss
    app.o(i.Receiveps_int) refers to rt_memclr.o(.text) for __aeabi_memclr
    app.o(i.Receiveps_int) refers to rt_memcpy_v6.o(.text) for __aeabi_memcpy
    app.o(i.Receiveps_int) refers to app.o(.data) for .data
    app.o(i.Receiveps_int) refers to mainv1.o(.data) for packet_len
    app.o(i.Receiveps_int) refers to mainv1.o(.bss) for packet_rbuf
    app.o(i.Receivetxt_int) refers to rt_memclr_w.o(.text) for __aeabi_memclr4
    app.o(i.Receivetxt_int) refers to rt_memcpy_v6.o(.text) for __aeabi_memcpy
    app.o(i.Receivetxt_int) refers to app.o(.bss) for .bss
    app.o(i.Receivetxt_int) refers to mainv1.o(.data) for packet_len
    app.o(i.Receivetxt_int) refers to mainv1.o(.bss) for packet_rbuf
    app.o(i.Receivetxt_int) refers to app.o(.data) for .data
    app.o(i.SYS_PARAMETER_Save) refers to 24c32.o(i.EEPROM_WriteBytes) for EEPROM_WriteBytes
    app.o(i.SYS_PARAMETER_Save) refers to app.o(.bss) for .bss
    app.o(i.SYS_PARAMETER_Update) refers to 24c32.o(i.EEPROM_ReadBytes) for EEPROM_ReadBytes
    app.o(i.SYS_PARAMETER_Update) refers to app.o(.bss) for .bss
    app.o(i.SYS_PARAMETER_Update) refers to mainv1.o(.data) for FM_value
    app.o(i.answer) refers to stm32f10x_usart.o(i.USART_ITConfig) for USART_ITConfig
    app.o(i.answer) refers to mainv1.o(.bss) for packet_tbuf
    app.o(i.answer) refers to mainv1.o(.data) for packet_sendsize
    app.o(i.answer) refers to mainv1.o(.data) for packet_tct
    app.o(i.answer) refers to mainv1.o(.data) for packet_T_OK
    app.o(i.protocol) refers to show.o(i.Show_FM) for Show_FM
    app.o(i.protocol) refers to qn8027_driver.o(i.QNd8027_SetChannel) for QNd8027_SetChannel
    app.o(i.protocol) refers to app.o(i.Answer_handshake) for Answer_handshake
    app.o(i.protocol) refers to app.o(i.Receivetxt_int) for Receivetxt_int
    app.o(i.protocol) refers to app.o(i.turn) for turn
    app.o(i.protocol) refers to app.o(i.RDSsend_area_allset) for RDSsend_area_allset
    app.o(i.protocol) refers to show.o(i.Show_PEVal) for Show_PEVal
    app.o(i.protocol) refers to app.o(i.Receiveps_int) for Receiveps_int
    app.o(i.protocol) refers to app.o(i.Receive_areastate_int) for Receive_areastate_int
    app.o(i.protocol) refers to app.o(i.answer) for answer
    app.o(i.protocol) refers to app.o(i.send_pdata) for send_pdata
    app.o(i.protocol) refers to mainv1.o(.data) for packet_R_OK
    app.o(i.protocol) refers to mainv1.o(.data) for packet_R_OK2
    app.o(i.protocol) refers to app.o(.data) for .data
    app.o(i.protocol) refers to mainv1.o(.data) for Disconnect_pc
    app.o(i.ps_int) refers to mainv1.o(.data) for PS_Name
    app.o(i.ps_int) refers to app.o(.data) for .data
    app.o(i.send_pdata) refers to app.o(i.ComData_Verify) for ComData_Verify
    app.o(i.send_pdata) refers to stm32f10x_usart.o(i.USART_ITConfig) for USART_ITConfig
    app.o(i.send_pdata) refers to app.o(.data) for .data
    app.o(i.send_pdata) refers to mainv1.o(.data) for RP_value
    app.o(i.send_pdata) refers to mainv1.o(.bss) for packet_tbuf
    app.o(i.send_pdata) refers to mainv1.o(.data) for packet_sendsize
    app.o(i.send_pdata) refers to mainv1.o(.data) for packet_tct
    app.o(i.send_pdata) refers to mainv1.o(.data) for packet_T_OK
    app.o(i.toggle) refers to qn8027_driver.o(i.QN8027_ReadReg) for QN8027_ReadReg
    app.o(i.toggle) refers to qn8027_driver.o(i.QN8027_WriteReg) for QN8027_WriteReg
    app.o(i.turn) refers to qn8027_driver.o(i.QN8027_ReadReg) for QN8027_ReadReg
    app.o(i.turn) refers to qn8027_driver.o(i.QN8027_WriteReg) for QN8027_WriteReg
    app.o(i.txt_int) refers to _scanf_str.o(.text) for _scanf_string
    app.o(i.txt_int) refers to __0sscanf.o(.text) for __0sscanf
    app.o(i.txt_int) refers to app.o(.bss) for .bss
    app.o(i.txt_int) refers to app.o(.data) for .data
    app.o(.data) refers to app.o(.bss) for PTY
    app.o(.data) refers to app.o(.conststring) for .conststring
    adc.o(i.ADC_GPIO_Configuration) refers to stm32f10x_gpio.o(i.GPIO_Init) for GPIO_Init
    adc.o(i.adc_int) refers to adc.o(i.ADC_GPIO_Configuration) for ADC_GPIO_Configuration
    adc.o(i.adc_int) refers to stm32f10x_rcc.o(i.RCC_AHBPeriphClockCmd) for RCC_AHBPeriphClockCmd
    adc.o(i.adc_int) refers to stm32f10x_dma.o(i.DMA_DeInit) for DMA_DeInit
    adc.o(i.adc_int) refers to stm32f10x_dma.o(i.DMA_Init) for DMA_Init
    adc.o(i.adc_int) refers to stm32f10x_dma.o(i.DMA_Cmd) for DMA_Cmd
    adc.o(i.adc_int) refers to stm32f10x_rcc.o(i.RCC_APB2PeriphClockCmd) for RCC_APB2PeriphClockCmd
    adc.o(i.adc_int) refers to stm32f10x_adc.o(i.ADC_Init) for ADC_Init
    adc.o(i.adc_int) refers to stm32f10x_adc.o(i.ADC_RegularChannelConfig) for ADC_RegularChannelConfig
    adc.o(i.adc_int) refers to stm32f10x_adc.o(i.ADC_DMACmd) for ADC_DMACmd
    adc.o(i.adc_int) refers to stm32f10x_adc.o(i.ADC_Cmd) for ADC_Cmd
    adc.o(i.adc_int) refers to stm32f10x_adc.o(i.ADC_ResetCalibration) for ADC_ResetCalibration
    adc.o(i.adc_int) refers to stm32f10x_adc.o(i.ADC_GetResetCalibrationStatus) for ADC_GetResetCalibrationStatus
    adc.o(i.adc_int) refers to stm32f10x_adc.o(i.ADC_StartCalibration) for ADC_StartCalibration
    adc.o(i.adc_int) refers to stm32f10x_adc.o(i.ADC_GetCalibrationStatus) for ADC_GetCalibrationStatus
    adc.o(i.adc_int) refers to stm32f10x_adc.o(i.ADC_SoftwareStartConvCmd) for ADC_SoftwareStartConvCmd
    adc.o(i.adc_int) refers to adc.o(.bss) for .bss
    rt_task.o(i.rt_block) refers to rt_list.o(i.rt_put_dly) for rt_put_dly
    rt_task.o(i.rt_block) refers to rt_list.o(i.rt_get_first) for rt_get_first
    rt_task.o(i.rt_block) refers to rt_task.o(i.rt_switch_req) for rt_switch_req
    rt_task.o(i.rt_block) refers to rt_task.o(.data) for .data
    rt_task.o(i.rt_block) refers to rt_list.o(.bss) for os_rdy
    rt_task.o(i.rt_dispatch) refers to rt_list.o(i.rt_put_rdy_first) for rt_put_rdy_first
    rt_task.o(i.rt_dispatch) refers to rt_task.o(i.rt_switch_req) for rt_switch_req
    rt_task.o(i.rt_dispatch) refers to rt_list.o(i.rt_get_first) for rt_get_first
    rt_task.o(i.rt_dispatch) refers to rt_list.o(i.rt_put_prio) for rt_put_prio
    rt_task.o(i.rt_dispatch) refers to rt_task.o(.data) for .data
    rt_task.o(i.rt_dispatch) refers to rt_list.o(.bss) for os_rdy
    rt_task.o(i.rt_init_context) refers to rt_membox.o(i.rt_alloc_box) for rt_alloc_box
    rt_task.o(i.rt_init_context) refers to hal_cm3.o(i.rt_init_stack) for rt_init_stack
    rt_task.o(i.rt_init_context) refers to rtx_conf_cm.o(.bss) for mp_stk
    rt_task.o(i.rt_switch_req) refers to hal_cm3.o(i.dbg_task_switch) for dbg_task_switch
    rt_task.o(i.rt_switch_req) refers to rt_task.o(.data) for .data
    rt_task.o(i.rt_switch_req) refers to hal_cm3.o(.data) for dbg_msg
    rt_task.o(i.rt_sys_init) refers to hal_cm3.o(i.dbg_init) for dbg_init
    rt_task.o(i.rt_sys_init) refers to rt_membox.o(i._init_box) for _init_box
    rt_task.o(i.rt_sys_init) refers to rt_task.o(i.rt_init_context) for rt_init_context
    rt_task.o(i.rt_sys_init) refers to hal_cm3.o(.emb_text) for rt_set_PSP
    rt_task.o(i.rt_sys_init) refers to rt_robin.o(i.rt_init_robin) for rt_init_robin
    rt_task.o(i.rt_sys_init) refers to rt_task.o(i.rt_tsk_create) for rt_tsk_create
    rt_task.o(i.rt_sys_init) refers to rtx_conf_cm.o(.bss) for os_active_TCB
    rt_task.o(i.rt_sys_init) refers to rtx_conf_cm.o(.constdata) for os_maxtaskrun
    rt_task.o(i.rt_sys_init) refers to rtx_conf_cm.o(.constdata) for mp_tcb_size
    rt_task.o(i.rt_sys_init) refers to rtx_conf_cm.o(.bss) for mp_tcb
    rt_task.o(i.rt_sys_init) refers to rtx_conf_cm.o(.constdata) for os_stackinfo
    rt_task.o(i.rt_sys_init) refers to rtx_conf_cm.o(.constdata) for mp_stk_size
    rt_task.o(i.rt_sys_init) refers to rtx_conf_cm.o(.bss) for mp_stk
    rt_task.o(i.rt_sys_init) refers to rtx_conf_cm.o(.constdata) for mp_tmr_size
    rt_task.o(i.rt_sys_init) refers to rtx_conf_cm.o(.data) for m_tmr
    rt_task.o(i.rt_sys_init) refers to rt_task.o(.bss) for .bss
    rt_task.o(i.rt_sys_init) refers to rtx_conf_cm.o(i.os_idle_demon) for os_idle_demon
    rt_task.o(i.rt_sys_init) refers to rt_list.o(.bss) for os_rdy
    rt_task.o(i.rt_sys_init) refers to rt_task.o(.data) for .data
    rt_task.o(i.rt_sys_init) refers to rtx_conf_cm.o(.bss) for os_fifo
    rt_task.o(i.rt_sys_init) refers to rtx_conf_cm.o(.constdata) for os_fifo_size
    rt_task.o(i.rt_sys_init) refers to rtx_conf_cm.o(.constdata) for os_trv
    rt_task.o(i.rt_tsk_create) refers to rt_membox.o(i.rt_alloc_box) for rt_alloc_box
    rt_task.o(i.rt_tsk_create) refers to rt_task.o(i.rt_init_context) for rt_init_context
    rt_task.o(i.rt_tsk_create) refers to hal_cm3.o(i.dbg_task_notify) for dbg_task_notify
    rt_task.o(i.rt_tsk_create) refers to rt_task.o(i.rt_dispatch) for rt_dispatch
    rt_task.o(i.rt_tsk_create) refers to rtx_conf_cm.o(.bss) for mp_tcb
    rt_task.o(i.rt_tsk_create) refers to rtx_conf_cm.o(.bss) for os_active_TCB
    rt_task.o(i.rt_tsk_create) refers to rtx_conf_cm.o(.constdata) for os_maxtaskrun
    rt_task.o(i.rt_tsk_create) refers to hal_cm3.o(.data) for dbg_msg
    rt_task.o(i.rt_tsk_create) refers to rt_task.o(.data) for .data
    rt_task.o(i.rt_tsk_delete) refers to rt_membox.o(i.rt_free_box) for rt_free_box
    rt_task.o(i.rt_tsk_delete) refers to hal_cm3.o(i.dbg_task_notify) for dbg_task_notify
    rt_task.o(i.rt_tsk_delete) refers to rt_task.o(i.rt_dispatch) for rt_dispatch
    rt_task.o(i.rt_tsk_delete) refers to rt_list.o(i.rt_rmv_list) for rt_rmv_list
    rt_task.o(i.rt_tsk_delete) refers to rt_list.o(i.rt_rmv_dly) for rt_rmv_dly
    rt_task.o(i.rt_tsk_delete) refers to hal_cm3.o(.data) for dbg_msg
    rt_task.o(i.rt_tsk_delete) refers to rt_task.o(.data) for .data
    rt_task.o(i.rt_tsk_delete) refers to rtx_conf_cm.o(.bss) for os_active_TCB
    rt_task.o(i.rt_tsk_delete) refers to rtx_conf_cm.o(.bss) for mp_stk
    rt_task.o(i.rt_tsk_delete) refers to rtx_conf_cm.o(.bss) for mp_tcb
    rt_task.o(i.rt_tsk_delete) refers to rtx_conf_cm.o(.constdata) for os_maxtaskrun
    rt_task.o(i.rt_tsk_pass) refers to rt_list.o(i.rt_get_same_rdy_prio) for rt_get_same_rdy_prio
    rt_task.o(i.rt_tsk_pass) refers to rt_list.o(i.rt_put_prio) for rt_put_prio
    rt_task.o(i.rt_tsk_pass) refers to rt_task.o(i.rt_switch_req) for rt_switch_req
    rt_task.o(i.rt_tsk_pass) refers to rt_task.o(.data) for .data
    rt_task.o(i.rt_tsk_pass) refers to rt_list.o(.bss) for os_rdy
    rt_task.o(i.rt_tsk_prio) refers to rt_list.o(i.rt_put_prio) for rt_put_prio
    rt_task.o(i.rt_tsk_prio) refers to rt_list.o(i.rt_resort_prio) for rt_resort_prio
    rt_task.o(i.rt_tsk_prio) refers to rt_list.o(i.rt_get_first) for rt_get_first
    rt_task.o(i.rt_tsk_prio) refers to rt_task.o(i.rt_dispatch) for rt_dispatch
    rt_task.o(i.rt_tsk_prio) refers to rt_task.o(.data) for .data
    rt_task.o(i.rt_tsk_prio) refers to rtx_conf_cm.o(.constdata) for os_maxtaskrun
    rt_task.o(i.rt_tsk_prio) refers to rtx_conf_cm.o(.bss) for os_active_TCB
    rt_task.o(i.rt_tsk_prio) refers to rt_list.o(.bss) for os_rdy
    rt_task.o(i.rt_tsk_self) refers to rt_task.o(.data) for .data
    rt_event.o(i.isr_evt_set) refers to rt_list.o(i.rt_psq_enq) for rt_psq_enq
    rt_event.o(i.isr_evt_set) refers to rt_system.o(i.rt_psh_req) for rt_psh_req
    rt_event.o(i.isr_evt_set) refers to rtx_conf_cm.o(.bss) for os_active_TCB
    rt_event.o(i.rt_evt_clr) refers to rtx_conf_cm.o(.bss) for os_active_TCB
    rt_event.o(i.rt_evt_get) refers to rt_task.o(.data) for os_tsk
    rt_event.o(i.rt_evt_psh) refers to rt_list.o(i.rt_rmv_dly) for rt_rmv_dly
    rt_event.o(i.rt_evt_psh) refers to rt_list.o(i.rt_put_prio) for rt_put_prio
    rt_event.o(i.rt_evt_psh) refers to rt_list.o(.bss) for os_rdy
    rt_event.o(i.rt_evt_set) refers to rt_list.o(i.rt_rmv_dly) for rt_rmv_dly
    rt_event.o(i.rt_evt_set) refers to rt_task.o(i.rt_dispatch) for rt_dispatch
    rt_event.o(i.rt_evt_set) refers to rtx_conf_cm.o(.bss) for os_active_TCB
    rt_event.o(i.rt_evt_wait) refers to rt_task.o(i.rt_block) for rt_block
    rt_event.o(i.rt_evt_wait) refers to rt_task.o(.data) for os_tsk
    rt_time.o(i.rt_dly_wait) refers to rt_task.o(i.rt_block) for rt_block
    rt_time.o(i.rt_itv_set) refers to rt_task.o(.data) for os_tsk
    rt_time.o(i.rt_itv_set) refers to rt_time.o(.data) for .data
    rt_time.o(i.rt_itv_wait) refers to rt_task.o(i.rt_block) for rt_block
    rt_time.o(i.rt_itv_wait) refers to rt_task.o(.data) for os_tsk
    rt_time.o(i.rt_itv_wait) refers to rt_time.o(.data) for .data
    rt_mutex.o(i.rt_mut_release) refers to rt_list.o(i.rt_get_first) for rt_get_first
    rt_mutex.o(i.rt_mut_release) refers to rt_list.o(i.rt_rmv_dly) for rt_rmv_dly
    rt_mutex.o(i.rt_mut_release) refers to rt_list.o(i.rt_put_prio) for rt_put_prio
    rt_mutex.o(i.rt_mut_release) refers to rt_task.o(i.rt_dispatch) for rt_dispatch
    rt_mutex.o(i.rt_mut_release) refers to rt_task.o(.data) for os_tsk
    rt_mutex.o(i.rt_mut_release) refers to rt_list.o(.bss) for os_rdy
    rt_mutex.o(i.rt_mut_wait) refers to rt_list.o(i.rt_resort_prio) for rt_resort_prio
    rt_mutex.o(i.rt_mut_wait) refers to rt_list.o(i.rt_put_prio) for rt_put_prio
    rt_mutex.o(i.rt_mut_wait) refers to rt_task.o(i.rt_block) for rt_block
    rt_mutex.o(i.rt_mut_wait) refers to rt_task.o(.data) for os_tsk
    hal_cm3.o(.emb_text) refers to rtx_conf_cm.o(.constdata) for os_flags
    hal_cm3.o(.emb_text) refers to rt_membox.o(i.rt_alloc_box) for rt_alloc_box
    hal_cm3.o(.emb_text) refers to rt_membox.o(i.rt_free_box) for rt_free_box
    hal_cm3.o(.emb_text) refers to rtx_conf_cm.o(i.rt_stk_check) for rt_stk_check
    hal_cm3.o(.emb_text) refers to rt_task.o(.data) for os_tsk
    hal_cm3.o(.emb_text) refers to SVC_Table.o(SVC_TABLE) for SVC_Count
    hal_cm3.o(.emb_text) refers to rt_system.o(i.rt_pop_req) for rt_pop_req
    hal_cm3.o(.emb_text) refers to rt_system.o(i.rt_systick) for rt_systick
    hal_cm3.o(i.dbg_init) refers to hal_cm3.o(.data) for .data
    hal_cm3.o(i.rt_init_stack) refers to rtx_conf_cm.o(.constdata) for os_stackinfo
    rt_system.o(i.rt_pop_req) refers to rt_list.o(i.rt_put_rdy_first) for rt_put_rdy_first
    rt_system.o(i.rt_pop_req) refers to rt_semaphore.o(i.rt_sem_psh) for rt_sem_psh
    rt_system.o(i.rt_pop_req) refers to rt_list.o(i.rt_get_first) for rt_get_first
    rt_system.o(i.rt_pop_req) refers to rt_task.o(i.rt_switch_req) for rt_switch_req
    rt_system.o(i.rt_pop_req) refers to rt_event.o(i.rt_evt_psh) for rt_evt_psh
    rt_system.o(i.rt_pop_req) refers to rt_mailbox.o(i.rt_mbx_psh) for rt_mbx_psh
    rt_system.o(i.rt_pop_req) refers to rt_task.o(.data) for os_tsk
    rt_system.o(i.rt_pop_req) refers to rt_system.o(.data) for .data
    rt_system.o(i.rt_pop_req) refers to rtx_conf_cm.o(.bss) for os_fifo
    rt_system.o(i.rt_pop_req) refers to rt_list.o(.bss) for os_rdy
    rt_system.o(i.rt_psh_req) refers to rt_system.o(.data) for .data
    rt_system.o(i.rt_stk_check) refers to rtx_conf_cm.o(i.os_error) for os_error
    rt_system.o(i.rt_stk_check) refers to rt_task.o(.data) for os_tsk
    rt_system.o(i.rt_systick) refers to rt_list.o(i.rt_put_rdy_first) for rt_put_rdy_first
    rt_system.o(i.rt_systick) refers to rt_robin.o(i.rt_chk_robin) for rt_chk_robin
    rt_system.o(i.rt_systick) refers to rt_list.o(i.rt_dec_dly) for rt_dec_dly
    rt_system.o(i.rt_systick) refers to rt_timer.o(i.rt_tmr_tick) for rt_tmr_tick
    rt_system.o(i.rt_systick) refers to rt_list.o(i.rt_get_first) for rt_get_first
    rt_system.o(i.rt_systick) refers to rt_task.o(i.rt_switch_req) for rt_switch_req
    rt_system.o(i.rt_systick) refers to rt_task.o(.data) for os_tsk
    rt_system.o(i.rt_systick) refers to rt_time.o(.data) for os_time
    rt_system.o(i.rt_systick) refers to rt_list.o(.bss) for os_rdy
    rt_system.o(i.rt_tsk_lock) refers to rt_system.o(.data) for .data
    rt_system.o(i.rt_tsk_unlock) refers to rt_system.o(.data) for .data
    rt_list.o(i.rt_dec_dly) refers to rt_list.o(i.rt_put_prio) for rt_put_prio
    rt_list.o(i.rt_dec_dly) refers to rt_list.o(.bss) for .bss
    rt_list.o(i.rt_dec_dly) refers to rt_time.o(.data) for os_time
    rt_list.o(i.rt_get_same_rdy_prio) refers to rt_list.o(.bss) for .bss
    rt_list.o(i.rt_get_same_rdy_prio) refers to rt_task.o(.data) for os_tsk
    rt_list.o(i.rt_psq_enq) refers to rtx_conf_cm.o(i.os_error) for os_error
    rt_list.o(i.rt_psq_enq) refers to rtx_conf_cm.o(.bss) for os_fifo
    rt_list.o(i.rt_put_dly) refers to rt_list.o(.bss) for .bss
    rt_list.o(i.rt_put_rdy_first) refers to rt_list.o(.bss) for .bss
    rt_list.o(i.rt_resort_prio) refers to rt_list.o(i.rt_rmv_list) for rt_rmv_list
    rt_list.o(i.rt_resort_prio) refers to rt_list.o(i.rt_put_prio) for rt_put_prio
    rt_list.o(i.rt_resort_prio) refers to rt_list.o(.bss) for .bss
    rt_list.o(i.rt_rmv_list) refers to rt_list.o(.bss) for .bss
    rt_robin.o(i.rt_chk_robin) refers to rt_list.o(i.rt_get_first) for rt_get_first
    rt_robin.o(i.rt_chk_robin) refers to rt_list.o(i.rt_put_prio) for rt_put_prio
    rt_robin.o(i.rt_chk_robin) refers to rt_robin.o(.data) for .data
    rt_robin.o(i.rt_chk_robin) refers to rt_list.o(.bss) for os_rdy
    rt_robin.o(i.rt_chk_robin) refers to rt_time.o(.data) for os_time
    rt_robin.o(i.rt_init_robin) refers to rt_robin.o(.data) for .data
    rt_robin.o(i.rt_init_robin) refers to rtx_conf_cm.o(.constdata) for os_rrobin
    rt_membox.o(i._calloc_box) refers to hal_cm3.o(.emb_text) for _alloc_box
    rt_mailbox.o(i.isr_mbx_receive) refers to rt_list.o(i.rt_psq_enq) for rt_psq_enq
    rt_mailbox.o(i.isr_mbx_receive) refers to rt_system.o(i.rt_psh_req) for rt_psh_req
    rt_mailbox.o(i.isr_mbx_send) refers to rt_list.o(i.rt_psq_enq) for rt_psq_enq
    rt_mailbox.o(i.isr_mbx_send) refers to rt_system.o(i.rt_psh_req) for rt_psh_req
    rt_mailbox.o(i.rt_mbx_psh) refers to rt_list.o(i.rt_get_first) for rt_get_first
    rt_mailbox.o(i.rt_mbx_psh) refers to rt_list.o(i.rt_rmv_dly) for rt_rmv_dly
    rt_mailbox.o(i.rt_mbx_psh) refers to rt_list.o(i.rt_put_prio) for rt_put_prio
    rt_mailbox.o(i.rt_mbx_psh) refers to rtx_conf_cm.o(i.os_error) for os_error
    rt_mailbox.o(i.rt_mbx_psh) refers to rt_list.o(.bss) for os_rdy
    rt_mailbox.o(i.rt_mbx_send) refers to rt_list.o(i.rt_put_prio) for rt_put_prio
    rt_mailbox.o(i.rt_mbx_send) refers to rt_list.o(i.rt_get_first) for rt_get_first
    rt_mailbox.o(i.rt_mbx_send) refers to rt_list.o(i.rt_rmv_dly) for rt_rmv_dly
    rt_mailbox.o(i.rt_mbx_send) refers to rt_task.o(i.rt_dispatch) for rt_dispatch
    rt_mailbox.o(i.rt_mbx_send) refers to rt_task.o(i.rt_block) for rt_block
    rt_mailbox.o(i.rt_mbx_send) refers to rt_task.o(.data) for os_tsk
    rt_mailbox.o(i.rt_mbx_wait) refers to rt_list.o(i.rt_get_first) for rt_get_first
    rt_mailbox.o(i.rt_mbx_wait) refers to rt_list.o(i.rt_rmv_dly) for rt_rmv_dly
    rt_mailbox.o(i.rt_mbx_wait) refers to rt_task.o(i.rt_dispatch) for rt_dispatch
    rt_mailbox.o(i.rt_mbx_wait) refers to rt_list.o(i.rt_put_prio) for rt_put_prio
    rt_mailbox.o(i.rt_mbx_wait) refers to rt_task.o(i.rt_block) for rt_block
    rt_mailbox.o(i.rt_mbx_wait) refers to rt_task.o(.data) for os_tsk
    rt_semaphore.o(i.isr_sem_send) refers to rt_list.o(i.rt_psq_enq) for rt_psq_enq
    rt_semaphore.o(i.isr_sem_send) refers to rt_system.o(i.rt_psh_req) for rt_psh_req
    rt_semaphore.o(i.rt_sem_psh) refers to rt_list.o(i.rt_get_first) for rt_get_first
    rt_semaphore.o(i.rt_sem_psh) refers to rt_list.o(i.rt_rmv_dly) for rt_rmv_dly
    rt_semaphore.o(i.rt_sem_psh) refers to rt_list.o(i.rt_put_prio) for rt_put_prio
    rt_semaphore.o(i.rt_sem_psh) refers to rt_list.o(.bss) for os_rdy
    rt_semaphore.o(i.rt_sem_send) refers to rt_list.o(i.rt_get_first) for rt_get_first
    rt_semaphore.o(i.rt_sem_send) refers to rt_list.o(i.rt_rmv_dly) for rt_rmv_dly
    rt_semaphore.o(i.rt_sem_send) refers to rt_task.o(i.rt_dispatch) for rt_dispatch
    rt_semaphore.o(i.rt_sem_send) refers to rt_task.o(.data) for os_tsk
    rt_semaphore.o(i.rt_sem_wait) refers to rt_list.o(i.rt_put_prio) for rt_put_prio
    rt_semaphore.o(i.rt_sem_wait) refers to rt_task.o(i.rt_block) for rt_block
    rt_semaphore.o(i.rt_sem_wait) refers to rt_task.o(.data) for os_tsk
    rt_timer.o(i.rt_tmr_create) refers to rt_membox.o(i.rt_alloc_box) for rt_alloc_box
    rt_timer.o(i.rt_tmr_create) refers to rtx_conf_cm.o(.data) for m_tmr
    rt_timer.o(i.rt_tmr_create) refers to rt_timer.o(.data) for .data
    rt_timer.o(i.rt_tmr_kill) refers to rt_membox.o(i.rt_free_box) for rt_free_box
    rt_timer.o(i.rt_tmr_kill) refers to rt_timer.o(.data) for .data
    rt_timer.o(i.rt_tmr_kill) refers to rtx_conf_cm.o(.data) for m_tmr
    rt_timer.o(i.rt_tmr_tick) refers to rtx_conf_cm.o(i.os_tmr_call) for os_tmr_call
    rt_timer.o(i.rt_tmr_tick) refers to rt_membox.o(i.rt_free_box) for rt_free_box
    rt_timer.o(i.rt_tmr_tick) refers to rt_timer.o(.data) for .data
    rt_timer.o(i.rt_tmr_tick) refers to rtx_conf_cm.o(.data) for m_tmr
    libspace.o(.text) refers to libspace.o(.bss) for __libspace_start
    __0sscanf.o(.text) refers to scanf_char.o(.text) for __vfscanf_char
    __0sscanf.o(.text) refers to _sgetc.o(.text) for _sgetc
    rt_memcpy_v6.o(.text) refers to rt_memcpy_w.o(.text) for __aeabi_memcpy4
    aeabi_memset.o(.text) refers to rt_memclr.o(.text) for _memset
    rt_memclr.o(.text) refers to rt_memclr_w.o(.text) for _memset_w
    __main.o(!!!main) refers to rtentry.o(.ARM.Collect$$rtentry$$00000000) for __rt_entry
    d2f.o(x$fpl$d2f) refers (Special) to usenofp.o(x$fpl$usenofp) for __I$use$fp
    d2f.o(x$fpl$d2f) refers to fretinf.o(x$fpl$fretinf) for __fpl_fretinf
    d2f.o(x$fpl$d2f) refers to dnaninf.o(x$fpl$dnaninf) for __fpl_dnaninf
    ddiv.o(x$fpl$drdiv) refers (Special) to usenofp.o(x$fpl$usenofp) for __I$use$fp
    ddiv.o(x$fpl$drdiv) refers to ddiv.o(x$fpl$ddiv) for ddiv_entry
    ddiv.o(x$fpl$ddiv) refers (Special) to usenofp.o(x$fpl$usenofp) for __I$use$fp
    ddiv.o(x$fpl$ddiv) refers to dretinf.o(x$fpl$dretinf) for __fpl_dretinf
    ddiv.o(x$fpl$ddiv) refers to dnaninf.o(x$fpl$dnaninf) for __fpl_dnaninf
    dflt_clz.o(x$fpl$dfltu) refers (Special) to usenofp.o(x$fpl$usenofp) for __I$use$fp
    dflt_clz.o(x$fpl$dflt) refers (Special) to usenofp.o(x$fpl$usenofp) for __I$use$fp
    dflt_clz.o(x$fpl$dfltn) refers (Special) to usenofp.o(x$fpl$usenofp) for __I$use$fp
    faddsub_clz.o(x$fpl$fadd) refers (Special) to usenofp.o(x$fpl$usenofp) for __I$use$fp
    faddsub_clz.o(x$fpl$fadd) refers to faddsub_clz.o(x$fpl$fsub) for _fsub1
    faddsub_clz.o(x$fpl$fadd) refers to fretinf.o(x$fpl$fretinf) for __fpl_fretinf
    faddsub_clz.o(x$fpl$fadd) refers to fnaninf.o(x$fpl$fnaninf) for __fpl_fnaninf
    faddsub_clz.o(x$fpl$frsb) refers (Special) to usenofp.o(x$fpl$usenofp) for __I$use$fp
    faddsub_clz.o(x$fpl$frsb) refers to faddsub_clz.o(x$fpl$fadd) for _fadd1
    faddsub_clz.o(x$fpl$frsb) refers to faddsub_clz.o(x$fpl$fsub) for _fsub1
    faddsub_clz.o(x$fpl$fsub) refers (Special) to usenofp.o(x$fpl$usenofp) for __I$use$fp
    faddsub_clz.o(x$fpl$fsub) refers to faddsub_clz.o(x$fpl$fadd) for _fadd1
    faddsub_clz.o(x$fpl$fsub) refers to fnaninf.o(x$fpl$fnaninf) for __fpl_fnaninf
    fdiv.o(x$fpl$frdiv) refers (Special) to usenofp.o(x$fpl$usenofp) for __I$use$fp
    fdiv.o(x$fpl$frdiv) refers to fdiv.o(x$fpl$fdiv) for _fdiv1
    fdiv.o(x$fpl$fdiv) refers (Special) to usenofp.o(x$fpl$usenofp) for __I$use$fp
    fdiv.o(x$fpl$fdiv) refers to fretinf.o(x$fpl$fretinf) for __fpl_fretinf
    fdiv.o(x$fpl$fdiv) refers to fnaninf.o(x$fpl$fnaninf) for __fpl_fnaninf
    ffixu.o(x$fpl$ffixu) refers (Special) to usenofp.o(x$fpl$usenofp) for __I$use$fp
    ffixu.o(x$fpl$ffixu) refers to fnaninf.o(x$fpl$fnaninf) for __fpl_fnaninf
    ffixu.o(x$fpl$ffixur) refers (Special) to usenofp.o(x$fpl$usenofp) for __I$use$fp
    ffixu.o(x$fpl$ffixur) refers to fnaninf.o(x$fpl$fnaninf) for __fpl_fnaninf
    fflt_clz.o(x$fpl$ffltu) refers (Special) to usenofp.o(x$fpl$usenofp) for __I$use$fp
    fflt_clz.o(x$fpl$fflt) refers (Special) to usenofp.o(x$fpl$usenofp) for __I$use$fp
    fflt_clz.o(x$fpl$ffltn) refers (Special) to usenofp.o(x$fpl$usenofp) for __I$use$fp
    fmul.o(x$fpl$fmul) refers (Special) to usenofp.o(x$fpl$usenofp) for __I$use$fp
    fmul.o(x$fpl$fmul) refers to fretinf.o(x$fpl$fretinf) for __fpl_fretinf
    fmul.o(x$fpl$fmul) refers to fnaninf.o(x$fpl$fnaninf) for __fpl_fnaninf
    frleqf.o(x$fpl$frleqf) refers (Special) to usenofp.o(x$fpl$usenofp) for __I$use$fp
    frleqf.o(x$fpl$frleqf) refers to fleqf.o(x$fpl$fleqf) for __fpl_fcmple_InfNaN
    scalbnf.o(x$fpl$scalbnf) refers (Special) to usenofp.o(x$fpl$usenofp) for __I$use$fp
    scalbnf.o(x$fpl$scalbnf) refers to fcheck1.o(x$fpl$fcheck1) for __fpl_fcheck_NaN1
    rtentry.o(.ARM.Collect$$rtentry$$00000000) refers (Special) to rtentry2.o(.ARM.Collect$$rtentry$$0000000A) for __rt_entry_li
    rtentry.o(.ARM.Collect$$rtentry$$00000000) refers (Special) to rtentry2.o(.ARM.Collect$$rtentry$$0000000D) for __rt_entry_main
    rtentry.o(.ARM.Collect$$rtentry$$00000000) refers (Special) to rtentry2.o(.ARM.Collect$$rtentry$$0000000C) for __rt_entry_postli_1
    rtentry.o(.ARM.Collect$$rtentry$$00000000) refers (Special) to rtentry2.o(.ARM.Collect$$rtentry$$00000009) for __rt_entry_postsh_1
    rtentry.o(.ARM.Collect$$rtentry$$00000000) refers (Special) to rtentry2.o(.ARM.Collect$$rtentry$$00000002) for __rt_entry_presh_1
    rtentry.o(.ARM.Collect$$rtentry$$00000000) refers (Special) to rtentry4.o(.ARM.Collect$$rtentry$$00000004) for __rt_entry_sh
    rtentry.o(.ARM.exidx) refers (Special) to rtentry2.o(.ARM.Collect$$rtentry$$0000000A) for __rt_entry_li
    rtentry.o(.ARM.exidx) refers (Special) to rtentry2.o(.ARM.Collect$$rtentry$$0000000D) for __rt_entry_main
    rtentry.o(.ARM.exidx) refers (Special) to rtentry2.o(.ARM.Collect$$rtentry$$0000000C) for __rt_entry_postli_1
    rtentry.o(.ARM.exidx) refers (Special) to rtentry2.o(.ARM.Collect$$rtentry$$00000009) for __rt_entry_postsh_1
    rtentry.o(.ARM.exidx) refers (Special) to rtentry2.o(.ARM.Collect$$rtentry$$00000002) for __rt_entry_presh_1
    rtentry.o(.ARM.exidx) refers (Special) to rtentry4.o(.ARM.Collect$$rtentry$$00000004) for __rt_entry_sh
    rtentry.o(.ARM.exidx) refers to rtentry.o(.ARM.Collect$$rtentry$$00000000) for .ARM.Collect$$rtentry$$00000000
    scanf_char.o(.text) refers to _scanf.o(.text) for __vfscanf
    scanf_char.o(.text) refers to isspace.o(.text) for isspace
    dnaninf.o(x$fpl$dnaninf) refers (Special) to usenofp.o(x$fpl$usenofp) for __I$use$fp
    dretinf.o(x$fpl$dretinf) refers (Special) to usenofp.o(x$fpl$usenofp) for __I$use$fp
    fcheck1.o(x$fpl$fcheck1) refers (Special) to usenofp.o(x$fpl$usenofp) for __I$use$fp
    fcheck1.o(x$fpl$fcheck1) refers to retnan.o(x$fpl$retnan) for __fpl_return_NaN
    fleqf.o(x$fpl$fleqf) refers (Special) to usenofp.o(x$fpl$usenofp) for __I$use$fp
    fleqf.o(x$fpl$fleqf) refers to fnaninf.o(x$fpl$fnaninf) for __fpl_fnaninf
    fleqf.o(x$fpl$fleqf) refers to fcmpi.o(x$fpl$fcmpinf) for __fpl_fcmp_Inf
    fnaninf.o(x$fpl$fnaninf) refers (Special) to usenofp.o(x$fpl$usenofp) for __I$use$fp
    fretinf.o(x$fpl$fretinf) refers (Special) to usenofp.o(x$fpl$usenofp) for __I$use$fp
    rtentry2.o(.ARM.Collect$$rtentry$$00000008) refers to boardinit2.o(.text) for _platform_post_stackheap_init
    rtentry2.o(.ARM.Collect$$rtentry$$0000000A) refers to libinit.o(.ARM.Collect$$libinit$$00000000) for __rt_lib_init
    rtentry2.o(.ARM.Collect$$rtentry$$0000000B) refers to boardinit3.o(.text) for _platform_post_lib_init
    rtentry2.o(.ARM.Collect$$rtentry$$0000000D) refers to mainv1.o(i.main) for main
    rtentry2.o(.ARM.Collect$$rtentry$$0000000D) refers to exit.o(.text) for exit
    rtentry2.o(.ARM.exidx) refers to rtentry2.o(.ARM.Collect$$rtentry$$00000001) for .ARM.Collect$$rtentry$$00000001
    rtentry2.o(.ARM.exidx) refers to rtentry2.o(.ARM.Collect$$rtentry$$00000002) for .ARM.Collect$$rtentry$$00000002
    rtentry2.o(.ARM.exidx) refers to rtentry2.o(.ARM.Collect$$rtentry$$00000008) for .ARM.Collect$$rtentry$$00000008
    rtentry2.o(.ARM.exidx) refers to rtentry2.o(.ARM.Collect$$rtentry$$00000009) for .ARM.Collect$$rtentry$$00000009
    rtentry2.o(.ARM.exidx) refers to rtentry2.o(.ARM.Collect$$rtentry$$0000000A) for .ARM.Collect$$rtentry$$0000000A
    rtentry2.o(.ARM.exidx) refers to rtentry2.o(.ARM.Collect$$rtentry$$0000000B) for .ARM.Collect$$rtentry$$0000000B
    rtentry2.o(.ARM.exidx) refers to rtentry2.o(.ARM.Collect$$rtentry$$0000000C) for .ARM.Collect$$rtentry$$0000000C
    rtentry2.o(.ARM.exidx) refers to rtentry2.o(.ARM.Collect$$rtentry$$0000000D) for .ARM.Collect$$rtentry$$0000000D
    rtentry4.o(.ARM.Collect$$rtentry$$00000004) refers to sys_stackheap_outer.o(.text) for __user_setup_stackheap
    rtentry4.o(.ARM.exidx) refers to rtentry4.o(.ARM.Collect$$rtentry$$00000004) for .ARM.Collect$$rtentry$$00000004
    isspace.o(.text) refers to rt_ctype_table.o(.text) for __rt_ctype_table
    _scanf.o(.text) refers (Weak) to _scanf_str.o(.text) for _scanf_string
    fcmpi.o(x$fpl$fcmpinf) refers (Special) to usenofp.o(x$fpl$usenofp) for __I$use$fp
    retnan.o(x$fpl$retnan) refers (Special) to usenofp.o(x$fpl$usenofp) for __I$use$fp
    retnan.o(x$fpl$retnan) refers to trapv.o(x$fpl$trapveneer) for __fpl_cmpreturn
    sys_stackheap_outer.o(.text) refers to libspace.o(.text) for __user_perproc_libspace
    sys_stackheap_outer.o(.text) refers to startup_stm32f10x_md.o(.text) for __user_initial_stackheap
    rt_ctype_table.o(.text) refers to rt_locale_twolibspace.o(.text) for __rt_locale
    rt_ctype_table.o(.text) refers to lc_ctype_c.o(locale$$code) for _get_lc_ctype
    exit.o(.text) refers to rtexit.o(.ARM.Collect$$rtexit$$00000000) for __rt_exit
    libinit.o(.ARM.Collect$$libinit$$00000000) refers (Special) to libinit2.o(.ARM.Collect$$libinit$$0000002A) for __rt_lib_init_alloca_1
    libinit.o(.ARM.Collect$$libinit$$00000000) refers (Special) to libinit2.o(.ARM.Collect$$libinit$$00000028) for __rt_lib_init_argv_1
    libinit.o(.ARM.Collect$$libinit$$00000000) refers (Special) to libinit2.o(.ARM.Collect$$libinit$$00000017) for __rt_lib_init_atexit_1
    libinit.o(.ARM.Collect$$libinit$$00000000) refers (Special) to libinit2.o(.ARM.Collect$$libinit$$0000001D) for __rt_lib_init_clock_1
    libinit.o(.ARM.Collect$$libinit$$00000000) refers (Special) to libinit2.o(.ARM.Collect$$libinit$$0000002E) for __rt_lib_init_cpp_1
    libinit.o(.ARM.Collect$$libinit$$00000000) refers (Special) to libinit2.o(.ARM.Collect$$libinit$$0000002C) for __rt_lib_init_exceptions_1
    libinit.o(.ARM.Collect$$libinit$$00000000) refers (Special) to libinit2.o(.ARM.Collect$$libinit$$0000001B) for __rt_lib_init_fp_trap_1
    libinit.o(.ARM.Collect$$libinit$$00000000) refers (Special) to libinit2.o(.ARM.Collect$$libinit$$0000001F) for __rt_lib_init_getenv_1
    libinit.o(.ARM.Collect$$libinit$$00000000) refers (Special) to libinit2.o(.ARM.Collect$$libinit$$00000006) for __rt_lib_init_heap_1
    libinit.o(.ARM.Collect$$libinit$$00000000) refers (Special) to libinit2.o(.ARM.Collect$$libinit$$0000000D) for __rt_lib_init_lc_collate_1
    libinit.o(.ARM.Collect$$libinit$$00000000) refers (Special) to libinit2.o(.ARM.Collect$$libinit$$0000000F) for __rt_lib_init_lc_ctype_1
    libinit.o(.ARM.Collect$$libinit$$00000000) refers (Special) to libinit2.o(.ARM.Collect$$libinit$$00000011) for __rt_lib_init_lc_monetary_1
    libinit.o(.ARM.Collect$$libinit$$00000000) refers (Special) to libinit2.o(.ARM.Collect$$libinit$$00000013) for __rt_lib_init_lc_numeric_1
    libinit.o(.ARM.Collect$$libinit$$00000000) refers (Special) to libinit2.o(.ARM.Collect$$libinit$$00000015) for __rt_lib_init_lc_time_1
    libinit.o(.ARM.Collect$$libinit$$00000000) refers (Special) to libinit2.o(.ARM.Collect$$libinit$$0000000A) for __rt_lib_init_rand_1
    libinit.o(.ARM.Collect$$libinit$$00000000) refers (Special) to libinit2.o(.ARM.Collect$$libinit$$0000002F) for __rt_lib_init_return
    libinit.o(.ARM.Collect$$libinit$$00000000) refers (Special) to libinit2.o(.ARM.Collect$$libinit$$00000019) for __rt_lib_init_signal_1
    libinit.o(.ARM.Collect$$libinit$$00000000) refers (Special) to libinit2.o(.ARM.Collect$$libinit$$00000021) for __rt_lib_init_stdio_1
    libinit.o(.ARM.Collect$$libinit$$00000000) refers (Special) to libinit2.o(.ARM.Collect$$libinit$$00000008) for __rt_lib_init_user_alloc_1
    libinit.o(.ARM.Collect$$libinit$$00000000) refers to fpinit.o(x$fpl$fpinit) for _fp_init
    trapv.o(x$fpl$trapveneer) refers (Special) to usenofp.o(x$fpl$usenofp) for __I$use$fp
    rtexit.o(.ARM.Collect$$rtexit$$00000000) refers (Special) to rtexit2.o(.ARM.Collect$$rtexit$$00000004) for __rt_exit_exit
    rtexit.o(.ARM.Collect$$rtexit$$00000000) refers (Special) to rtexit2.o(.ARM.Collect$$rtexit$$00000003) for __rt_exit_ls
    rtexit.o(.ARM.Collect$$rtexit$$00000000) refers (Special) to rtexit2.o(.ARM.Collect$$rtexit$$00000002) for __rt_exit_prels_1
    rtexit.o(.ARM.exidx) refers (Special) to rtexit2.o(.ARM.Collect$$rtexit$$00000004) for __rt_exit_exit
    rtexit.o(.ARM.exidx) refers (Special) to rtexit2.o(.ARM.Collect$$rtexit$$00000003) for __rt_exit_ls
    rtexit.o(.ARM.exidx) refers (Special) to rtexit2.o(.ARM.Collect$$rtexit$$00000002) for __rt_exit_prels_1
    rtexit.o(.ARM.exidx) refers to rtexit.o(.ARM.Collect$$rtexit$$00000000) for .ARM.Collect$$rtexit$$00000000
    rt_locale.o(.text) refers to rt_locale.o(.bss) for __rt_locale_data
    rt_locale_intlibspace.o(.text) refers to libspace.o(.bss) for __libspace_start
    rt_locale_twolibspace.o(.text) refers to libspace.o(.text) for __user_perproc_libspace
    lc_ctype_c.o(locale$$data) refers (Special) to libinit2.o(.ARM.Collect$$libinit$$0000000E) for __rt_lib_init_lc_ctype_2
    lc_ctype_c.o(locale$$code) refers (Special) to libinit2.o(.ARM.Collect$$libinit$$0000000E) for __rt_lib_init_lc_ctype_2
    lc_ctype_c.o(locale$$code) refers to strcmpv7m.o(.text) for strcmp
    lc_ctype_c.o(locale$$code) refers to lc_ctype_c.o(locale$$data) for __lcctype_c_name
    libinit2.o(.ARM.Collect$$libinit$$0000000B) refers (Weak) to rt_locale_twolibspace.o(.text) for __rt_locale
    libinit2.o(.ARM.Collect$$libinit$$0000000C) refers to libinit2.o(.ARM.Collect$$libinit$$0000000B) for .ARM.Collect$$libinit$$0000000B
    libinit2.o(.ARM.Collect$$libinit$$0000000E) refers to libinit2.o(.ARM.Collect$$libinit$$0000000B) for .ARM.Collect$$libinit$$0000000B
    libinit2.o(.ARM.Collect$$libinit$$0000000E) refers (Weak) to lc_ctype_c.o(locale$$code) for _get_lc_ctype
    libinit2.o(.ARM.Collect$$libinit$$00000010) refers to libinit2.o(.ARM.Collect$$libinit$$0000000B) for .ARM.Collect$$libinit$$0000000B
    libinit2.o(.ARM.Collect$$libinit$$00000012) refers to libinit2.o(.ARM.Collect$$libinit$$0000000B) for .ARM.Collect$$libinit$$0000000B
    libinit2.o(.ARM.Collect$$libinit$$00000014) refers to libinit2.o(.ARM.Collect$$libinit$$0000000B) for .ARM.Collect$$libinit$$0000000B
    libinit2.o(.ARM.Collect$$libinit$$00000022) refers to argv_veneer.o(.emb_text) for __ARM_argv_veneer
    libinit2.o(.ARM.Collect$$libinit$$00000023) refers to argv_veneer.o(.emb_text) for __ARM_argv_veneer
    fpinit.o(x$fpl$fpinit) refers to rt_fp_status_addr_twolibspace.o(.text) for __rt_fp_status_addr
    rtexit2.o(.ARM.Collect$$rtexit$$00000003) refers to libshutdown.o(.ARM.Collect$$libshutdown$$00000000) for __rt_lib_shutdown
    rtexit2.o(.ARM.Collect$$rtexit$$00000004) refers to sys_exit.o(.text) for _sys_exit
    rtexit2.o(.ARM.exidx) refers to rtexit2.o(.ARM.Collect$$rtexit$$00000001) for .ARM.Collect$$rtexit$$00000001
    rtexit2.o(.ARM.exidx) refers to rtexit2.o(.ARM.Collect$$rtexit$$00000002) for .ARM.Collect$$rtexit$$00000002
    rtexit2.o(.ARM.exidx) refers to rtexit2.o(.ARM.Collect$$rtexit$$00000003) for .ARM.Collect$$rtexit$$00000003
    rtexit2.o(.ARM.exidx) refers to rtexit2.o(.ARM.Collect$$rtexit$$00000004) for .ARM.Collect$$rtexit$$00000004
    rt_fp_status_addr.o(.text) refers to rt_fp_status_addr.o(.bss) for __rt_fp_status_addr_data
    rt_fp_status_addr_intlibspace.o(.text) refers to libspace.o(.bss) for __libspace_start
    rt_fp_status_addr_twolibspace.o(.text) refers to rtx_conf_cm.o(i.__user_perthread_libspace) for __user_perthread_libspace
    argv_veneer.o(.emb_text) refers to no_argv.o(.text) for __ARM_get_argv
    sys_exit.o(.text) refers (Special) to use_no_semi.o(.text) for __I$use$semihosting
    _get_argv_nomalloc.o(.text) refers (Special) to hrguard.o(.text) for __heap_region$guard
    _get_argv_nomalloc.o(.text) refers to defsig_rtmem_outer.o(.text) for __rt_SIGRTMEM
    _get_argv_nomalloc.o(.text) refers to sys_command.o(.text) for _sys_command_string
    libshutdown.o(.ARM.Collect$$libshutdown$$00000000) refers (Special) to libshutdown2.o(.ARM.Collect$$libshutdown$$00000006) for __rt_lib_shutdown_fp_trap_1
    libshutdown.o(.ARM.Collect$$libshutdown$$00000000) refers (Special) to libshutdown2.o(.ARM.Collect$$libshutdown$$0000000E) for __rt_lib_shutdown_heap_1
    libshutdown.o(.ARM.Collect$$libshutdown$$00000000) refers (Special) to libshutdown2.o(.ARM.Collect$$libshutdown$$0000000F) for __rt_lib_shutdown_return
    libshutdown.o(.ARM.Collect$$libshutdown$$00000000) refers (Special) to libshutdown2.o(.ARM.Collect$$libshutdown$$00000009) for __rt_lib_shutdown_signal_1
    libshutdown.o(.ARM.Collect$$libshutdown$$00000000) refers (Special) to libshutdown2.o(.ARM.Collect$$libshutdown$$00000003) for __rt_lib_shutdown_stdio_1
    libshutdown.o(.ARM.Collect$$libshutdown$$00000000) refers (Special) to libshutdown2.o(.ARM.Collect$$libshutdown$$0000000B) for __rt_lib_shutdown_user_alloc_1
    sys_command.o(.text) refers (Special) to use_no_semi.o(.text) for __I$use$semihosting
    defsig_rtmem_outer.o(.text) refers to defsig_rtmem_inner.o(.text) for __rt_SIGRTMEM_inner
    defsig_rtmem_outer.o(.text) refers to defsig_exit.o(.text) for __sig_exit
    defsig_rtmem_formal.o(.text) refers to rt_raise.o(.text) for __rt_raise
    rt_raise.o(.text) refers to __raise.o(.text) for __raise
    rt_raise.o(.text) refers to sys_exit.o(.text) for _sys_exit
    defsig_exit.o(.text) refers to sys_exit.o(.text) for _sys_exit
    defsig_rtmem_inner.o(.text) refers to defsig_general.o(.text) for __default_signal_display
    __raise.o(.text) refers to defsig.o(CL$$defsig) for __default_signal_handler
    defsig_general.o(.text) refers to sys_wrch.o(.text) for _ttywrch
    sys_wrch.o(.text) refers (Special) to use_no_semi.o(.text) for __I$use$semihosting
    defsig.o(CL$$defsig) refers to defsig_rtmem_inner.o(.text) for __rt_SIGRTMEM_inner
    defsig_abrt_inner.o(.text) refers to defsig_general.o(.text) for __default_signal_display
    defsig_fpe_inner.o(.text) refers to defsig_general.o(.text) for __default_signal_display
    defsig_rtred_inner.o(.text) refers to defsig_general.o(.text) for __default_signal_display
    defsig_stak_inner.o(.text) refers to defsig_general.o(.text) for __default_signal_display
    defsig_pvfn_inner.o(.text) refers to defsig_general.o(.text) for __default_signal_display
    defsig_cppl_inner.o(.text) refers to defsig_general.o(.text) for __default_signal_display
    defsig_segv_inner.o(.text) refers to defsig_general.o(.text) for __default_signal_display
    defsig_other.o(.text) refers to defsig_general.o(.text) for __default_signal_display


==============================================================================

Removing Unused input sections from the image.

    Removing system_stm32f10x.o(i.SystemCoreClockUpdate), (104 bytes).
    Removing system_stm32f10x.o(.data), (20 bytes).
    Removing core_cm3.o(.emb_text), (32 bytes).
    Removing misc.o(i.NVIC_SetVectorTable), (20 bytes).
    Removing misc.o(i.NVIC_SystemLPConfig), (24 bytes).
    Removing misc.o(i.SysTick_CLKSourceConfig), (24 bytes).
    Removing stm32f10x_gpio.o(i.GPIO_AFIODeInit), (22 bytes).
    Removing stm32f10x_gpio.o(i.GPIO_DeInit), (180 bytes).
    Removing stm32f10x_gpio.o(i.GPIO_ETH_MediaInterfaceConfig), (12 bytes).
    Removing stm32f10x_gpio.o(i.GPIO_EventOutputCmd), (12 bytes).
    Removing stm32f10x_gpio.o(i.GPIO_EventOutputConfig), (28 bytes).
    Removing stm32f10x_gpio.o(i.GPIO_PinLockConfig), (16 bytes).
    Removing stm32f10x_gpio.o(i.GPIO_PinRemapConfig), (88 bytes).
    Removing stm32f10x_gpio.o(i.GPIO_ReadInputData), (6 bytes).
    Removing stm32f10x_gpio.o(i.GPIO_ReadOutputData), (6 bytes).
    Removing stm32f10x_gpio.o(i.GPIO_ReadOutputDataBit), (14 bytes).
    Removing stm32f10x_gpio.o(i.GPIO_StructInit), (16 bytes).
    Removing stm32f10x_gpio.o(i.GPIO_Write), (4 bytes).
    Removing stm32f10x_gpio.o(i.GPIO_WriteBit), (10 bytes).
    Removing stm32f10x_rcc.o(i.RCC_ADCCLKConfig), (20 bytes).
    Removing stm32f10x_rcc.o(i.RCC_AdjustHSICalibrationValue), (20 bytes).
    Removing stm32f10x_rcc.o(i.RCC_ClearFlag), (16 bytes).
    Removing stm32f10x_rcc.o(i.RCC_ClearITPendingBit), (12 bytes).
    Removing stm32f10x_rcc.o(i.RCC_ClockSecuritySystemCmd), (12 bytes).
    Removing stm32f10x_rcc.o(i.RCC_DeInit), (64 bytes).
    Removing stm32f10x_rcc.o(i.RCC_GetITStatus), (20 bytes).
    Removing stm32f10x_rcc.o(i.RCC_GetSYSCLKSource), (16 bytes).
    Removing stm32f10x_rcc.o(i.RCC_HCLKConfig), (20 bytes).
    Removing stm32f10x_rcc.o(i.RCC_HSEConfig), (52 bytes).
    Removing stm32f10x_rcc.o(i.RCC_HSICmd), (12 bytes).
    Removing stm32f10x_rcc.o(i.RCC_ITConfig), (24 bytes).
    Removing stm32f10x_rcc.o(i.RCC_LSICmd), (12 bytes).
    Removing stm32f10x_rcc.o(i.RCC_MCOConfig), (12 bytes).
    Removing stm32f10x_rcc.o(i.RCC_PCLK1Config), (20 bytes).
    Removing stm32f10x_rcc.o(i.RCC_PCLK2Config), (20 bytes).
    Removing stm32f10x_rcc.o(i.RCC_PLLCmd), (12 bytes).
    Removing stm32f10x_rcc.o(i.RCC_PLLConfig), (20 bytes).
    Removing stm32f10x_rcc.o(i.RCC_SYSCLKConfig), (20 bytes).
    Removing stm32f10x_rcc.o(i.RCC_USBCLKConfig), (12 bytes).
    Removing stm32f10x_rcc.o(i.RCC_WaitForHSEStartUp), (38 bytes).
    Removing stm32f10x_tim.o(i.TI1_Config), (104 bytes).
    Removing stm32f10x_tim.o(i.TI2_Config), (120 bytes).
    Removing stm32f10x_tim.o(i.TIM_ARRPreloadConfig), (20 bytes).
    Removing stm32f10x_tim.o(i.TIM_BDTRConfig), (34 bytes).
    Removing stm32f10x_tim.o(i.TIM_BDTRStructInit), (18 bytes).
    Removing stm32f10x_tim.o(i.TIM_CCPreloadControl), (20 bytes).
    Removing stm32f10x_tim.o(i.TIM_CCxCmd), (22 bytes).
    Removing stm32f10x_tim.o(i.TIM_CCxNCmd), (22 bytes).
    Removing stm32f10x_tim.o(i.TIM_ClearFlag), (6 bytes).
    Removing stm32f10x_tim.o(i.TIM_ClearOC1Ref), (12 bytes).
    Removing stm32f10x_tim.o(i.TIM_ClearOC2Ref), (14 bytes).
    Removing stm32f10x_tim.o(i.TIM_ClearOC3Ref), (12 bytes).
    Removing stm32f10x_tim.o(i.TIM_ClearOC4Ref), (14 bytes).
    Removing stm32f10x_tim.o(i.TIM_CounterModeConfig), (12 bytes).
    Removing stm32f10x_tim.o(i.TIM_CtrlPWMOutputs), (22 bytes).
    Removing stm32f10x_tim.o(i.TIM_DMACmd), (16 bytes).
    Removing stm32f10x_tim.o(i.TIM_DMAConfig), (8 bytes).
    Removing stm32f10x_tim.o(i.TIM_ETRClockMode1Config), (18 bytes).
    Removing stm32f10x_tim.o(i.TIM_ETRClockMode2Config), (18 bytes).
    Removing stm32f10x_tim.o(i.TIM_ETRConfig), (18 bytes).
    Removing stm32f10x_tim.o(i.TIM_EncoderInterfaceConfig), (44 bytes).
    Removing stm32f10x_tim.o(i.TIM_ForcedOC1Config), (12 bytes).
    Removing stm32f10x_tim.o(i.TIM_ForcedOC2Config), (14 bytes).
    Removing stm32f10x_tim.o(i.TIM_ForcedOC3Config), (12 bytes).
    Removing stm32f10x_tim.o(i.TIM_ForcedOC4Config), (14 bytes).
    Removing stm32f10x_tim.o(i.TIM_GenerateEvent), (4 bytes).
    Removing stm32f10x_tim.o(i.TIM_GetCapture1), (4 bytes).
    Removing stm32f10x_tim.o(i.TIM_GetCapture2), (4 bytes).
    Removing stm32f10x_tim.o(i.TIM_GetCapture3), (4 bytes).
    Removing stm32f10x_tim.o(i.TIM_GetCapture4), (6 bytes).
    Removing stm32f10x_tim.o(i.TIM_GetCounter), (4 bytes).
    Removing stm32f10x_tim.o(i.TIM_GetFlagStatus), (14 bytes).
    Removing stm32f10x_tim.o(i.TIM_GetITStatus), (24 bytes).
    Removing stm32f10x_tim.o(i.TIM_GetPrescaler), (4 bytes).
    Removing stm32f10x_tim.o(i.TIM_ICInit), (300 bytes).
    Removing stm32f10x_tim.o(i.TIM_ICStructInit), (16 bytes).
    Removing stm32f10x_tim.o(i.TIM_ITRxExternalClockConfig), (18 bytes).
    Removing stm32f10x_tim.o(i.TIM_InternalClockConfig), (10 bytes).
    Removing stm32f10x_tim.o(i.TIM_OC1FastConfig), (12 bytes).
    Removing stm32f10x_tim.o(i.TIM_OC1Init), (128 bytes).
    Removing stm32f10x_tim.o(i.TIM_OC1NPolarityConfig), (12 bytes).
    Removing stm32f10x_tim.o(i.TIM_OC1PolarityConfig), (12 bytes).
    Removing stm32f10x_tim.o(i.TIM_OC1PreloadConfig), (12 bytes).
    Removing stm32f10x_tim.o(i.TIM_OC2FastConfig), (14 bytes).
    Removing stm32f10x_tim.o(i.TIM_OC2Init), (124 bytes).
    Removing stm32f10x_tim.o(i.TIM_OC2NPolarityConfig), (14 bytes).
    Removing stm32f10x_tim.o(i.TIM_OC2PolarityConfig), (14 bytes).
    Removing stm32f10x_tim.o(i.TIM_OC2PreloadConfig), (14 bytes).
    Removing stm32f10x_tim.o(i.TIM_OC3FastConfig), (12 bytes).
    Removing stm32f10x_tim.o(i.TIM_OC3Init), (120 bytes).
    Removing stm32f10x_tim.o(i.TIM_OC3NPolarityConfig), (14 bytes).
    Removing stm32f10x_tim.o(i.TIM_OC3PolarityConfig), (14 bytes).
    Removing stm32f10x_tim.o(i.TIM_OC3PreloadConfig), (12 bytes).
    Removing stm32f10x_tim.o(i.TIM_OC4FastConfig), (14 bytes).
    Removing stm32f10x_tim.o(i.TIM_OC4Init), (96 bytes).
    Removing stm32f10x_tim.o(i.TIM_OC4PolarityConfig), (14 bytes).
    Removing stm32f10x_tim.o(i.TIM_OC4PreloadConfig), (14 bytes).
    Removing stm32f10x_tim.o(i.TIM_OCStructInit), (20 bytes).
    Removing stm32f10x_tim.o(i.TIM_PWMIConfig), (108 bytes).
    Removing stm32f10x_tim.o(i.TIM_PrescalerConfig), (6 bytes).
    Removing stm32f10x_tim.o(i.TIM_SelectCCDMA), (20 bytes).
    Removing stm32f10x_tim.o(i.TIM_SelectCOM), (20 bytes).
    Removing stm32f10x_tim.o(i.TIM_SelectHallSensor), (20 bytes).
    Removing stm32f10x_tim.o(i.TIM_SelectInputTrigger), (12 bytes).
    Removing stm32f10x_tim.o(i.TIM_SelectMasterSlaveMode), (16 bytes).
    Removing stm32f10x_tim.o(i.TIM_SelectOCxM), (66 bytes).
    Removing stm32f10x_tim.o(i.TIM_SelectOnePulseMode), (16 bytes).
    Removing stm32f10x_tim.o(i.TIM_SelectOutputTrigger), (16 bytes).
    Removing stm32f10x_tim.o(i.TIM_SelectSlaveMode), (16 bytes).
    Removing stm32f10x_tim.o(i.TIM_SetAutoreload), (4 bytes).
    Removing stm32f10x_tim.o(i.TIM_SetClockDivision), (16 bytes).
    Removing stm32f10x_tim.o(i.TIM_SetCompare1), (4 bytes).
    Removing stm32f10x_tim.o(i.TIM_SetCompare2), (4 bytes).
    Removing stm32f10x_tim.o(i.TIM_SetCompare3), (4 bytes).
    Removing stm32f10x_tim.o(i.TIM_SetCompare4), (6 bytes).
    Removing stm32f10x_tim.o(i.TIM_SetCounter), (4 bytes).
    Removing stm32f10x_tim.o(i.TIM_SetIC1Prescaler), (16 bytes).
    Removing stm32f10x_tim.o(i.TIM_SetIC2Prescaler), (18 bytes).
    Removing stm32f10x_tim.o(i.TIM_SetIC3Prescaler), (16 bytes).
    Removing stm32f10x_tim.o(i.TIM_SetIC4Prescaler), (18 bytes).
    Removing stm32f10x_tim.o(i.TIM_TIxExternalClockConfig), (44 bytes).
    Removing stm32f10x_tim.o(i.TIM_TimeBaseStructInit), (18 bytes).
    Removing stm32f10x_tim.o(i.TIM_UpdateDisableConfig), (20 bytes).
    Removing stm32f10x_tim.o(i.TIM_UpdateRequestConfig), (20 bytes).
    Removing stm32f10x_usart.o(i.USART_ClearFlag), (6 bytes).
    Removing stm32f10x_usart.o(i.USART_ClearITPendingBit), (12 bytes).
    Removing stm32f10x_usart.o(i.USART_ClockInit), (30 bytes).
    Removing stm32f10x_usart.o(i.USART_ClockStructInit), (12 bytes).
    Removing stm32f10x_usart.o(i.USART_DMACmd), (16 bytes).
    Removing stm32f10x_usart.o(i.USART_DeInit), (116 bytes).
    Removing stm32f10x_usart.o(i.USART_GetFlagStatus), (14 bytes).
    Removing stm32f10x_usart.o(i.USART_HalfDuplexCmd), (20 bytes).
    Removing stm32f10x_usart.o(i.USART_IrDACmd), (20 bytes).
    Removing stm32f10x_usart.o(i.USART_IrDAConfig), (16 bytes).
    Removing stm32f10x_usart.o(i.USART_LINBreakDetectLengthConfig), (16 bytes).
    Removing stm32f10x_usart.o(i.USART_LINCmd), (20 bytes).
    Removing stm32f10x_usart.o(i.USART_OneBitMethodCmd), (20 bytes).
    Removing stm32f10x_usart.o(i.USART_OverSampling8Cmd), (20 bytes).
    Removing stm32f10x_usart.o(i.USART_ReceiverWakeUpCmd), (20 bytes).
    Removing stm32f10x_usart.o(i.USART_SendBreak), (10 bytes).
    Removing stm32f10x_usart.o(i.USART_SetAddress), (16 bytes).
    Removing stm32f10x_usart.o(i.USART_SetGuardTime), (16 bytes).
    Removing stm32f10x_usart.o(i.USART_SetPrescaler), (16 bytes).
    Removing stm32f10x_usart.o(i.USART_SmartCardCmd), (20 bytes).
    Removing stm32f10x_usart.o(i.USART_SmartCardNACKCmd), (20 bytes).
    Removing stm32f10x_usart.o(i.USART_StructInit), (22 bytes).
    Removing stm32f10x_usart.o(i.USART_WakeUpConfig), (16 bytes).
    Removing stm32f10x_exti.o(i.EXTI_ClearITPendingBit), (12 bytes).
    Removing stm32f10x_exti.o(i.EXTI_DeInit), (28 bytes).
    Removing stm32f10x_exti.o(i.EXTI_GenerateSWInterrupt), (16 bytes).
    Removing stm32f10x_exti.o(i.EXTI_GetITStatus), (32 bytes).
    Removing stm32f10x_exti.o(i.EXTI_StructInit), (14 bytes).
    Removing stm32f10x_pwr.o(i.PWR_ClearFlag), (16 bytes).
    Removing stm32f10x_pwr.o(i.PWR_DeInit), (24 bytes).
    Removing stm32f10x_pwr.o(i.PWR_EnterSTANDBYMode), (40 bytes).
    Removing stm32f10x_pwr.o(i.PWR_EnterSTOPMode), (56 bytes).
    Removing stm32f10x_pwr.o(i.PWR_GetFlagStatus), (20 bytes).
    Removing stm32f10x_pwr.o(i.PWR_PVDCmd), (12 bytes).
    Removing stm32f10x_pwr.o(i.PWR_PVDLevelConfig), (20 bytes).
    Removing stm32f10x_pwr.o(i.PWR_WakeUpPinCmd), (12 bytes).
    Removing stm32f10x_rtc.o(i.RTC_ClearFlag), (16 bytes).
    Removing stm32f10x_rtc.o(i.RTC_GetDivider), (20 bytes).
    Removing stm32f10x_rtc.o(i.RTC_GetFlagStatus), (20 bytes).
    Removing stm32f10x_rtc.o(i.RTC_SetAlarm), (28 bytes).
    Removing stm32f10x_bkp.o(i.BKP_ClearFlag), (16 bytes).
    Removing stm32f10x_bkp.o(i.BKP_ClearITPendingBit), (16 bytes).
    Removing stm32f10x_bkp.o(i.BKP_GetFlagStatus), (12 bytes).
    Removing stm32f10x_bkp.o(i.BKP_GetITStatus), (12 bytes).
    Removing stm32f10x_bkp.o(i.BKP_ITConfig), (12 bytes).
    Removing stm32f10x_bkp.o(i.BKP_RTCOutputConfig), (20 bytes).
    Removing stm32f10x_bkp.o(i.BKP_SetRTCCalibrationValue), (20 bytes).
    Removing stm32f10x_bkp.o(i.BKP_TamperPinCmd), (12 bytes).
    Removing stm32f10x_bkp.o(i.BKP_TamperPinLevelConfig), (12 bytes).
    Removing stm32f10x_adc.o(i.ADC_AnalogWatchdogCmd), (16 bytes).
    Removing stm32f10x_adc.o(i.ADC_AnalogWatchdogSingleChannelConfig), (12 bytes).
    Removing stm32f10x_adc.o(i.ADC_AnalogWatchdogThresholdsConfig), (6 bytes).
    Removing stm32f10x_adc.o(i.ADC_AutoInjectedConvCmd), (20 bytes).
    Removing stm32f10x_adc.o(i.ADC_ClearFlag), (6 bytes).
    Removing stm32f10x_adc.o(i.ADC_ClearITPendingBit), (8 bytes).
    Removing stm32f10x_adc.o(i.ADC_DeInit), (68 bytes).
    Removing stm32f10x_adc.o(i.ADC_DiscModeChannelCountConfig), (16 bytes).
    Removing stm32f10x_adc.o(i.ADC_DiscModeCmd), (20 bytes).
    Removing stm32f10x_adc.o(i.ADC_ExternalTrigConvCmd), (20 bytes).
    Removing stm32f10x_adc.o(i.ADC_ExternalTrigInjectedConvCmd), (20 bytes).
    Removing stm32f10x_adc.o(i.ADC_ExternalTrigInjectedConvConfig), (12 bytes).
    Removing stm32f10x_adc.o(i.ADC_GetConversionValue), (6 bytes).
    Removing stm32f10x_adc.o(i.ADC_GetDualModeConversionValue), (12 bytes).
    Removing stm32f10x_adc.o(i.ADC_GetFlagStatus), (14 bytes).
    Removing stm32f10x_adc.o(i.ADC_GetITStatus), (28 bytes).
    Removing stm32f10x_adc.o(i.ADC_GetInjectedConversionValue), (8 bytes).
    Removing stm32f10x_adc.o(i.ADC_GetSoftwareStartConvStatus), (14 bytes).
    Removing stm32f10x_adc.o(i.ADC_GetSoftwareStartInjectedConvCmdStatus), (14 bytes).
    Removing stm32f10x_adc.o(i.ADC_ITConfig), (18 bytes).
    Removing stm32f10x_adc.o(i.ADC_InjectedChannelConfig), (74 bytes).
    Removing stm32f10x_adc.o(i.ADC_InjectedDiscModeCmd), (20 bytes).
    Removing stm32f10x_adc.o(i.ADC_InjectedSequencerLengthConfig), (16 bytes).
    Removing stm32f10x_adc.o(i.ADC_SetInjectedOffset), (4 bytes).
    Removing stm32f10x_adc.o(i.ADC_SoftwareStartInjectedConvCmd), (20 bytes).
    Removing stm32f10x_adc.o(i.ADC_StructInit), (18 bytes).
    Removing stm32f10x_adc.o(i.ADC_TempSensorVrefintCmd), (32 bytes).
    Removing stm32f10x_dma.o(i.DMA_ClearFlag), (20 bytes).
    Removing stm32f10x_dma.o(i.DMA_ClearITPendingBit), (20 bytes).
    Removing stm32f10x_dma.o(i.DMA_GetCurrDataCounter), (6 bytes).
    Removing stm32f10x_dma.o(i.DMA_GetFlagStatus), (32 bytes).
    Removing stm32f10x_dma.o(i.DMA_GetITStatus), (32 bytes).
    Removing stm32f10x_dma.o(i.DMA_ITConfig), (16 bytes).
    Removing stm32f10x_dma.o(i.DMA_SetCurrDataCounter), (4 bytes).
    Removing stm32f10x_dma.o(i.DMA_StructInit), (26 bytes).
    Removing rtx_conf_cm.o(i._mutex_acquire), (32 bytes).
    Removing rtx_conf_cm.o(i._mutex_initialize), (48 bytes).
    Removing rtx_conf_cm.o(i._mutex_release), (28 bytes).
    Removing rtx_conf_cm.o(.data), (4 bytes).
    Removing mainv1.o(i.AutoFanControl_task), (48 bytes).
    Removing mainv1.o(i.ComDebug_task), (116 bytes).
    Removing mainv1.o(i.DebugMode), (1122 bytes).
    Removing mainv1.o(i.GetArea_DevStatus), (4 bytes).
    Removing mainv1.o(i.RDSData_Verify), (24 bytes).
    Removing mainv1.o(i.RDS_SendID), (104 bytes).
    Removing mainv1.o(i.RDS_SendVolume), (100 bytes).
    Removing mainv1.o(i.Show_Strip), (2 bytes).
    Removing mainv1.o(i.delayms), (12 bytes).
    Removing mainv1.o(.constdata), (16 bytes).
    Removing mainv1.o(.data), (1 bytes).
    Removing mainv1.o(.data), (4 bytes).
    Removing mainv1.o(.data), (4 bytes).
    Removing mainv1.o(.data), (1 bytes).
    Removing lcd19264 driverv20.o(i.LCD19264_BG_Close), (16 bytes).
    Removing lcd19264 driverv20.o(i.LCD19264_DisChar6X8), (52 bytes).
    Removing lcd19264 driverv20.o(i.LCD19264_DisChar_mask), (96 bytes).
    Removing lcd19264 driverv20.o(i.LCD19264_Display_String6X8), (32 bytes).
    Removing lcd19264 driverv20.o(i.LCD19264_Display_String_mask), (32 bytes).
    Removing drawpicture.o(i.Draw_Circle), (234 bytes).
    Removing drawpicture.o(i.Draw_Point_DDRAM), (52 bytes).
    Removing qn8027_driver.o(i.QN8027_MultidataRead), (152 bytes).
    Removing qn8027_driver.o(i.QN8027_MultidataWrite), (84 bytes).
    Removing qn8027_driver.o(i.QN8027_SetFMChannel), (38 bytes).
    Removing qn8027_driver.o(i.QndCapBankTuning), (28 bytes).
    Removing anjian.o(i.PTT_INPUT_STATUS), (26 bytes).
    Removing 24c32.o(i.EEPROM_Read1Byte), (100 bytes).
    Removing 24c32.o(i.EEPROM_Write1Byte), (84 bytes).
    Removing app.o(i.RDSsend_IDNum), (84 bytes).
    Removing app.o(i.RDSsend_Volume), (80 bytes).
    Removing app.o(.bss), (10 bytes).
    Removing app.o(.bss), (10 bytes).
    Removing app.o(.conststring), (11 bytes).
    Removing app.o(.data), (1 bytes).
    Removing app.o(.data), (1 bytes).
    Removing app.o(.data), (1 bytes).
    Removing app.o(.data), (4 bytes).
    Removing app.o(.data), (8 bytes).
    Removing app.o(.data), (1 bytes).
    Removing app.o(.data), (1 bytes).
    Removing app.o(.data), (1 bytes).
    Removing app.o(.data), (1 bytes).
    Removing adc.o(.bss), (16 bytes).
    Removing rt_task.o(i.rt_tsk_pass), (48 bytes).
    Removing rt_task.o(i.rt_tsk_prio), (128 bytes).
    Removing rt_event.o(i.isr_evt_set), (40 bytes).
    Removing rt_event.o(i.rt_evt_get), (12 bytes).
    Removing rt_time.o(i.rt_itv_set), (24 bytes).
    Removing rt_time.o(i.rt_itv_wait), (48 bytes).
    Removing rt_system.o(.emb_text), (0 bytes).
    Removing rt_system.o(i.rt_psh_req), (32 bytes).
    Removing rt_system.o(i.rt_stk_check), (36 bytes).
    Removing rt_system.o(i.rt_tsk_lock), (24 bytes).
    Removing rt_system.o(i.rt_tsk_unlock), (40 bytes).
    Removing rt_list.o(i.rt_get_same_rdy_prio), (36 bytes).
    Removing rt_list.o(i.rt_psq_enq), (88 bytes).
    Removing rt_membox.o(i._calloc_box), (30 bytes).
    Removing rt_mailbox.o(i.isr_mbx_receive), (86 bytes).
    Removing rt_mailbox.o(i.isr_mbx_send), (14 bytes).
    Removing rt_mailbox.o(i.rt_mbx_check), (8 bytes).
    Removing rt_mailbox.o(i.rt_mbx_init), (24 bytes).
    Removing rt_mailbox.o(i.rt_mbx_send), (172 bytes).
    Removing rt_mailbox.o(i.rt_mbx_wait), (180 bytes).
    Removing rt_semaphore.o(i.isr_sem_send), (16 bytes).
    Removing rt_semaphore.o(i.rt_sem_init), (12 bytes).
    Removing rt_semaphore.o(i.rt_sem_send), (56 bytes).
    Removing rt_semaphore.o(i.rt_sem_wait), (60 bytes).
    Removing rt_timer.o(i.rt_tmr_create), (80 bytes).
    Removing rt_timer.o(i.rt_tmr_kill), (52 bytes).

281 unused section(s) (total 9306 bytes) removed from the image.

==============================================================================

Image Symbol Table

    Local Symbols

    Symbol Name                              Value     Ov Type        Size  Object(Section)

    ../../angel/boardlib.s                   0x00000000   Number         0  boardshut.o ABSOLUTE
    ../../angel/boardlib.s                   0x00000000   Number         0  boardinit3.o ABSOLUTE
    ../../angel/boardlib.s                   0x00000000   Number         0  boardinit2.o ABSOLUTE
    ../../angel/boardlib.s                   0x00000000   Number         0  boardinit1.o ABSOLUTE
    ../../angel/dczerorl2.s                  0x00000000   Number         0  __dczerorl2.o ABSOLUTE
    ../../angel/handlers.s                   0x00000000   Number         0  __scatter_zi.o ABSOLUTE
    ../../angel/kernel.s                     0x00000000   Number         0  rtexit2.o ABSOLUTE
    ../../angel/kernel.s                     0x00000000   Number         0  rtexit.o ABSOLUTE
    ../../angel/kernel.s                     0x00000000   Number         0  rtentry2.o ABSOLUTE
    ../../angel/kernel.s                     0x00000000   Number         0  rtentry4.o ABSOLUTE
    ../../angel/kernel.s                     0x00000000   Number         0  rtentry.o ABSOLUTE
    ../../angel/rt.s                         0x00000000   Number         0  rt_fp_status_addr.o ABSOLUTE
    ../../angel/rt.s                         0x00000000   Number         0  rt_fp_status_addr_twolibspace.o ABSOLUTE
    ../../angel/rt.s                         0x00000000   Number         0  rt_locale_twolibspace.o ABSOLUTE
    ../../angel/rt.s                         0x00000000   Number         0  rt_locale_intlibspace.o ABSOLUTE
    ../../angel/rt.s                         0x00000000   Number         0  rt_locale.o ABSOLUTE
    ../../angel/rt.s                         0x00000000   Number         0  rt_raise.o ABSOLUTE
    ../../angel/rt.s                         0x00000000   Number         0  rt_fp_status_addr_intlibspace.o ABSOLUTE
    ../../angel/rt.s                         0x00000000   Number         0  rt_ctype_table.o ABSOLUTE
    ../../angel/scatter.s                    0x00000000   Number         0  __scatter.o ABSOLUTE
    ../../angel/startup.s                    0x00000000   Number         0  __main.o ABSOLUTE
    ../../angel/sys.s                        0x00000000   Number         0  use_no_semi.o ABSOLUTE
    ../../angel/sys.s                        0x00000000   Number         0  libspace.o ABSOLUTE
    ../../angel/sys.s                        0x00000000   Number         0  sys_stackheap_outer.o ABSOLUTE
    ../../angel/sysapp.c                     0x00000000   Number         0  sys_exit.o ABSOLUTE
    ../../angel/sysapp.c                     0x00000000   Number         0  sys_wrch.o ABSOLUTE
    ../../angel/sysapp.c                     0x00000000   Number         0  sys_command.o ABSOLUTE
    ../../armsys.c                           0x00000000   Number         0  argv_veneer.o ABSOLUTE
    ../../armsys.c                           0x00000000   Number         0  _get_argv_nomalloc.o ABSOLUTE
    ../../armsys.c                           0x00000000   Number         0  no_argv.o ABSOLUTE
    ../../armsys.c                           0x00000000   Number         0  argv_veneer.o ABSOLUTE
    ../../ctype.c                            0x00000000   Number         0  isspace.o ABSOLUTE
    ../../d2f.s                              0x00000000   Number         0  d2f.o ABSOLUTE
    ../../ddiv.s                             0x00000000   Number         0  ddiv.o ABSOLUTE
    ../../dflt.s                             0x00000000   Number         0  dflt_clz.o ABSOLUTE
    ../../dnaninf.s                          0x00000000   Number         0  dnaninf.o ABSOLUTE
    ../../dretinf.s                          0x00000000   Number         0  dretinf.o ABSOLUTE
    ../../faddsub.s                          0x00000000   Number         0  faddsub_clz.o ABSOLUTE
    ../../fcheck1.s                          0x00000000   Number         0  fcheck1.o ABSOLUTE
    ../../fcmpi.s                            0x00000000   Number         0  fcmpi.o ABSOLUTE
    ../../fdiv.s                             0x00000000   Number         0  fdiv.o ABSOLUTE
    ../../ffixu.s                            0x00000000   Number         0  ffixu.o ABSOLUTE
    ../../fflt.s                             0x00000000   Number         0  fflt_clz.o ABSOLUTE
    ../../fleqf.s                            0x00000000   Number         0  fleqf.o ABSOLUTE
    ../../fmul.s                             0x00000000   Number         0  fmul.o ABSOLUTE
    ../../fnaninf.s                          0x00000000   Number         0  fnaninf.o ABSOLUTE
    ../../fpinit.s                           0x00000000   Number         0  fpinit.o ABSOLUTE
    ../../fretinf.s                          0x00000000   Number         0  fretinf.o ABSOLUTE
    ../../frleqf.s                           0x00000000   Number         0  frleqf.o ABSOLUTE
    ../../heapalloc.c                        0x00000000   Number         0  hrguard.o ABSOLUTE
    ../../heapaux.c                          0x00000000   Number         0  heapauxi.o ABSOLUTE
    ../../libinit.s                          0x00000000   Number         0  libinit2.o ABSOLUTE
    ../../libinit.s                          0x00000000   Number         0  libshutdown2.o ABSOLUTE
    ../../libinit.s                          0x00000000   Number         0  libinit.o ABSOLUTE
    ../../libinit.s                          0x00000000   Number         0  libshutdown.o ABSOLUTE
    ../../locale.s                           0x00000000   Number         0  lc_ctype_c.o ABSOLUTE
    ../../memcpset.s                         0x00000000   Number         0  rt_memcpy_v6.o ABSOLUTE
    ../../memcpset.s                         0x00000000   Number         0  rt_memclr.o ABSOLUTE
    ../../memcpset.s                         0x00000000   Number         0  rt_memclr_w.o ABSOLUTE
    ../../memcpset.s                         0x00000000   Number         0  strcmpv7m.o ABSOLUTE
    ../../memcpset.s                         0x00000000   Number         0  rt_memcpy_w.o ABSOLUTE
    ../../memcpset.s                         0x00000000   Number         0  aeabi_memset.o ABSOLUTE
    ../../retnan.s                           0x00000000   Number         0  retnan.o ABSOLUTE
    ../../scalbnf.s                          0x00000000   Number         0  scalbnf.o ABSOLUTE
    ../../scanf.c                            0x00000000   Number         0  __0sscanf.o ABSOLUTE
    ../../scanf.c                            0x00000000   Number         0  _scanf_str.o ABSOLUTE
    ../../scanf.c                            0x00000000   Number         0  _sgetc.o ABSOLUTE
    ../../scanf.c                            0x00000000   Number         0  _scanf.o ABSOLUTE
    ../../scanf.c                            0x00000000   Number         0  scanf_char.o ABSOLUTE
    ../../signal.c                           0x00000000   Number         0  defsig_fpe_inner.o ABSOLUTE
    ../../signal.c                           0x00000000   Number         0  defsig_rtred_inner.o ABSOLUTE
    ../../signal.c                           0x00000000   Number         0  defsig_other.o ABSOLUTE
    ../../signal.c                           0x00000000   Number         0  defsig_stak_inner.o ABSOLUTE
    ../../signal.c                           0x00000000   Number         0  defsig_cppl_inner.o ABSOLUTE
    ../../signal.c                           0x00000000   Number         0  defsig_segv_inner.o ABSOLUTE
    ../../signal.c                           0x00000000   Number         0  defsig_rtmem_outer.o ABSOLUTE
    ../../signal.c                           0x00000000   Number         0  defsig_rtmem_formal.o ABSOLUTE
    ../../signal.c                           0x00000000   Number         0  defsig_exit.o ABSOLUTE
    ../../signal.c                           0x00000000   Number         0  defsig_rtmem_inner.o ABSOLUTE
    ../../signal.c                           0x00000000   Number         0  __raise.o ABSOLUTE
    ../../signal.c                           0x00000000   Number         0  defsig_general.o ABSOLUTE
    ../../signal.c                           0x00000000   Number         0  defsig_abrt_inner.o ABSOLUTE
    ../../signal.c                           0x00000000   Number         0  defsig_pvfn_inner.o ABSOLUTE
    ../../signal.s                           0x00000000   Number         0  defsig.o ABSOLUTE
    ../../stdlib.c                           0x00000000   Number         0  exit.o ABSOLUTE
    ../../trapv.s                            0x00000000   Number         0  trapv.o ABSOLUTE
    ../../usenofp.s                          0x00000000   Number         0  usenofp.o ABSOLUTE
    ..\..\STM32F10x_StdPeriph_Lib_V3.5.0\Libraries\CMSIS\CM3\CoreSupport\core_cm3.c 0x00000000   Number         0  core_cm3.o ABSOLUTE
    ..\..\STM32F10x_StdPeriph_Lib_V3.5.0\Libraries\CMSIS\CM3\DeviceSupport\ST\STM32F10x\startup\arm\startup_stm32f10x_md.s 0x00000000   Number         0  startup_stm32f10x_md.o ABSOLUTE
    ..\..\STM32F10x_StdPeriph_Lib_V3.5.0\Libraries\STM32F10x_StdPeriph_Driver\src\misc.c 0x00000000   Number         0  misc.o ABSOLUTE
    ..\..\STM32F10x_StdPeriph_Lib_V3.5.0\Libraries\STM32F10x_StdPeriph_Driver\src\stm32f10x_adc.c 0x00000000   Number         0  stm32f10x_adc.o ABSOLUTE
    ..\..\STM32F10x_StdPeriph_Lib_V3.5.0\Libraries\STM32F10x_StdPeriph_Driver\src\stm32f10x_bkp.c 0x00000000   Number         0  stm32f10x_bkp.o ABSOLUTE
    ..\..\STM32F10x_StdPeriph_Lib_V3.5.0\Libraries\STM32F10x_StdPeriph_Driver\src\stm32f10x_dma.c 0x00000000   Number         0  stm32f10x_dma.o ABSOLUTE
    ..\..\STM32F10x_StdPeriph_Lib_V3.5.0\Libraries\STM32F10x_StdPeriph_Driver\src\stm32f10x_exti.c 0x00000000   Number         0  stm32f10x_exti.o ABSOLUTE
    ..\..\STM32F10x_StdPeriph_Lib_V3.5.0\Libraries\STM32F10x_StdPeriph_Driver\src\stm32f10x_gpio.c 0x00000000   Number         0  stm32f10x_gpio.o ABSOLUTE
    ..\..\STM32F10x_StdPeriph_Lib_V3.5.0\Libraries\STM32F10x_StdPeriph_Driver\src\stm32f10x_pwr.c 0x00000000   Number         0  stm32f10x_pwr.o ABSOLUTE
    ..\..\STM32F10x_StdPeriph_Lib_V3.5.0\Libraries\STM32F10x_StdPeriph_Driver\src\stm32f10x_rcc.c 0x00000000   Number         0  stm32f10x_rcc.o ABSOLUTE
    ..\..\STM32F10x_StdPeriph_Lib_V3.5.0\Libraries\STM32F10x_StdPeriph_Driver\src\stm32f10x_rtc.c 0x00000000   Number         0  stm32f10x_rtc.o ABSOLUTE
    ..\..\STM32F10x_StdPeriph_Lib_V3.5.0\Libraries\STM32F10x_StdPeriph_Driver\src\stm32f10x_tim.c 0x00000000   Number         0  stm32f10x_tim.o ABSOLUTE
    ..\..\STM32F10x_StdPeriph_Lib_V3.5.0\Libraries\STM32F10x_StdPeriph_Driver\src\stm32f10x_usart.c 0x00000000   Number         0  stm32f10x_usart.o ABSOLUTE
    ..\24c32.c                               0x00000000   Number         0  24c32.o ABSOLUTE
    ..\DAC5615.c                             0x00000000   Number         0  dac5615.o ABSOLUTE
    ..\DrawPicture.c                         0x00000000   Number         0  drawpicture.o ABSOLUTE
    ..\LCD19264 DriverV20.c                  0x00000000   Number         0  lcd19264 driverv20.o ABSOLUTE
    ..\PT2314.c                              0x00000000   Number         0  pt2314.o ABSOLUTE
    ..\QN8027_Driver.c                       0x00000000   Number         0  qn8027_driver.o ABSOLUTE
    ..\RTX_Conf_CM.c                         0x00000000   Number         0  rtx_conf_cm.o ABSOLUTE
    ..\\..\\STM32F10x_StdPeriph_Lib_V3.5.0\\Libraries\\CMSIS\\CM3\\CoreSupport\\core_cm3.c 0x00000000   Number         0  core_cm3.o ABSOLUTE
    ..\anjian.c                              0x00000000   Number         0  anjian.o ABSOLUTE
    ..\li_code\adc.c                         0x00000000   Number         0  adc.o ABSOLUTE
    ..\li_code\app.c                         0x00000000   Number         0  app.o ABSOLUTE
    ..\mainV1.c                              0x00000000   Number         0  mainv1.o ABSOLUTE
    ..\show.c                                0x00000000   Number         0  show.o ABSOLUTE
    ..\stm32f10x_it.c                        0x00000000   Number         0  stm32f10x_it.o ABSOLUTE
    ..\system_stm32f10x.c                    0x00000000   Number         0  system_stm32f10x.o ABSOLUTE
    SRC\CM\HAL_CM3.c                         0x00000000   Number         0  hal_cm3.o ABSOLUTE
    SRC\CM\SVC_Table.s                       0x00000000   Number         0  SVC_Table.o ABSOLUTE
    SRC\CM\rt_Event.c                        0x00000000   Number         0  rt_event.o ABSOLUTE
    SRC\CM\rt_List.c                         0x00000000   Number         0  rt_list.o ABSOLUTE
    SRC\CM\rt_Mailbox.c                      0x00000000   Number         0  rt_mailbox.o ABSOLUTE
    SRC\CM\rt_MemBox.c                       0x00000000   Number         0  rt_membox.o ABSOLUTE
    SRC\CM\rt_Mutex.c                        0x00000000   Number         0  rt_mutex.o ABSOLUTE
    SRC\CM\rt_Robin.c                        0x00000000   Number         0  rt_robin.o ABSOLUTE
    SRC\CM\rt_Semaphore.c                    0x00000000   Number         0  rt_semaphore.o ABSOLUTE
    SRC\CM\rt_System.c                       0x00000000   Number         0  rt_system.o ABSOLUTE
    SRC\CM\rt_Task.c                         0x00000000   Number         0  rt_task.o ABSOLUTE
    SRC\CM\rt_Time.c                         0x00000000   Number         0  rt_time.o ABSOLUTE
    SRC\CM\rt_Timer.c                        0x00000000   Number         0  rt_timer.o ABSOLUTE
    SRC\\CM\\HAL_CM3.c                       0x00000000   Number         0  hal_cm3.o ABSOLUTE
    SRC\\CM\\rt_System.c                     0x00000000   Number         0  rt_system.o ABSOLUTE
    dc.s                                     0x00000000   Number         0  dc.o ABSOLUTE
    RESET                                    0x08000000   Section      236  startup_stm32f10x_md.o(RESET)
    !!!main                                  0x080000ec   Section        8  __main.o(!!!main)
    !!!scatter                               0x080000f4   Section       52  __scatter.o(!!!scatter)
    !!dczerorl2                              0x08000128   Section       90  __dczerorl2.o(!!dczerorl2)
    !!handler_zi                             0x08000184   Section       28  __scatter_zi.o(!!handler_zi)
    .ARM.Collect$$libinit$$00000000          0x080001a0   Section        6  libinit.o(.ARM.Collect$$libinit$$00000000)
    .ARM.Collect$$libinit$$00000006          0x080001a6   Section        0  libinit2.o(.ARM.Collect$$libinit$$00000006)
    .ARM.Collect$$libinit$$00000008          0x080001a6   Section        0  libinit2.o(.ARM.Collect$$libinit$$00000008)
    .ARM.Collect$$libinit$$0000000A          0x080001a6   Section        0  libinit2.o(.ARM.Collect$$libinit$$0000000A)
    .ARM.Collect$$libinit$$0000000B          0x080001a6   Section        6  libinit2.o(.ARM.Collect$$libinit$$0000000B)
    .ARM.Collect$$libinit$$0000000D          0x080001ac   Section        0  libinit2.o(.ARM.Collect$$libinit$$0000000D)
    .ARM.Collect$$libinit$$0000000E          0x080001ac   Section       12  libinit2.o(.ARM.Collect$$libinit$$0000000E)
    .ARM.Collect$$libinit$$0000000F          0x080001b8   Section        0  libinit2.o(.ARM.Collect$$libinit$$0000000F)
    .ARM.Collect$$libinit$$00000011          0x080001b8   Section        0  libinit2.o(.ARM.Collect$$libinit$$00000011)
    .ARM.Collect$$libinit$$00000013          0x080001b8   Section        0  libinit2.o(.ARM.Collect$$libinit$$00000013)
    .ARM.Collect$$libinit$$00000015          0x080001b8   Section        0  libinit2.o(.ARM.Collect$$libinit$$00000015)
    .ARM.Collect$$libinit$$00000017          0x080001b8   Section        0  libinit2.o(.ARM.Collect$$libinit$$00000017)
    .ARM.Collect$$libinit$$00000019          0x080001b8   Section        0  libinit2.o(.ARM.Collect$$libinit$$00000019)
    .ARM.Collect$$libinit$$0000001B          0x080001b8   Section        0  libinit2.o(.ARM.Collect$$libinit$$0000001B)
    .ARM.Collect$$libinit$$0000001D          0x080001b8   Section        0  libinit2.o(.ARM.Collect$$libinit$$0000001D)
    .ARM.Collect$$libinit$$0000001F          0x080001b8   Section        0  libinit2.o(.ARM.Collect$$libinit$$0000001F)
    .ARM.Collect$$libinit$$00000021          0x080001b8   Section        0  libinit2.o(.ARM.Collect$$libinit$$00000021)
    .ARM.Collect$$libinit$$00000028          0x080001b8   Section        0  libinit2.o(.ARM.Collect$$libinit$$00000028)
    .ARM.Collect$$libinit$$0000002A          0x080001b8   Section        0  libinit2.o(.ARM.Collect$$libinit$$0000002A)
    .ARM.Collect$$libinit$$0000002C          0x080001b8   Section        0  libinit2.o(.ARM.Collect$$libinit$$0000002C)
    .ARM.Collect$$libinit$$0000002E          0x080001b8   Section        0  libinit2.o(.ARM.Collect$$libinit$$0000002E)
    .ARM.Collect$$libinit$$0000002F          0x080001b8   Section        2  libinit2.o(.ARM.Collect$$libinit$$0000002F)
    .ARM.Collect$$libshutdown$$00000000      0x080001ba   Section        2  libshutdown.o(.ARM.Collect$$libshutdown$$00000000)
    .ARM.Collect$$libshutdown$$00000003      0x080001bc   Section        0  libshutdown2.o(.ARM.Collect$$libshutdown$$00000003)
    .ARM.Collect$$libshutdown$$00000006      0x080001bc   Section        0  libshutdown2.o(.ARM.Collect$$libshutdown$$00000006)
    .ARM.Collect$$libshutdown$$00000009      0x080001bc   Section        0  libshutdown2.o(.ARM.Collect$$libshutdown$$00000009)
    .ARM.Collect$$libshutdown$$0000000B      0x080001bc   Section        0  libshutdown2.o(.ARM.Collect$$libshutdown$$0000000B)
    .ARM.Collect$$libshutdown$$0000000E      0x080001bc   Section        0  libshutdown2.o(.ARM.Collect$$libshutdown$$0000000E)
    .ARM.Collect$$libshutdown$$0000000F      0x080001bc   Section        2  libshutdown2.o(.ARM.Collect$$libshutdown$$0000000F)
    .ARM.Collect$$rtentry$$00000000          0x080001be   Section        0  rtentry.o(.ARM.Collect$$rtentry$$00000000)
    .ARM.Collect$$rtentry$$00000002          0x080001be   Section        0  rtentry2.o(.ARM.Collect$$rtentry$$00000002)
    .ARM.Collect$$rtentry$$00000004          0x080001be   Section        6  rtentry4.o(.ARM.Collect$$rtentry$$00000004)
    .ARM.Collect$$rtentry$$00000009          0x080001c4   Section        0  rtentry2.o(.ARM.Collect$$rtentry$$00000009)
    .ARM.Collect$$rtentry$$0000000A          0x080001c4   Section        4  rtentry2.o(.ARM.Collect$$rtentry$$0000000A)
    .ARM.Collect$$rtentry$$0000000C          0x080001c8   Section        0  rtentry2.o(.ARM.Collect$$rtentry$$0000000C)
    .ARM.Collect$$rtentry$$0000000D          0x080001c8   Section        8  rtentry2.o(.ARM.Collect$$rtentry$$0000000D)
    .ARM.Collect$$rtexit$$00000000           0x080001d0   Section        2  rtexit.o(.ARM.Collect$$rtexit$$00000000)
    .ARM.Collect$$rtexit$$00000002           0x080001d2   Section        0  rtexit2.o(.ARM.Collect$$rtexit$$00000002)
    .ARM.Collect$$rtexit$$00000003           0x080001d2   Section        4  rtexit2.o(.ARM.Collect$$rtexit$$00000003)
    .ARM.Collect$$rtexit$$00000004           0x080001d6   Section        6  rtexit2.o(.ARM.Collect$$rtexit$$00000004)
    .emb_text                                0x080001dc   Section      332  hal_cm3.o(.emb_text)
    .text                                    0x08000328   Section       64  startup_stm32f10x_md.o(.text)
    .text                                    0x08000368   Section        8  libspace.o(.text)
    .text                                    0x08000370   Section        0  __0sscanf.o(.text)
    .text                                    0x080003ac   Section        0  _scanf_str.o(.text)
    .text                                    0x0800048a   Section      138  rt_memcpy_v6.o(.text)
    .text                                    0x08000514   Section       16  aeabi_memset.o(.text)
    .text                                    0x08000524   Section       68  rt_memclr.o(.text)
    .text                                    0x08000568   Section       78  rt_memclr_w.o(.text)
    .text                                    0x080005b6   Section        0  heapauxi.o(.text)
    .text                                    0x080005bc   Section        0  scanf_char.o(.text)
    _scanf_char_input                        0x080005bd   Thumb Code    12  scanf_char.o(.text)
    .text                                    0x080005ec   Section        0  _sgetc.o(.text)
    .text                                    0x0800062c   Section      100  rt_memcpy_w.o(.text)
    .text                                    0x08000690   Section        0  isspace.o(.text)
    .text                                    0x080006a4   Section        0  _scanf.o(.text)
    .text                                    0x08000a2c   Section       74  sys_stackheap_outer.o(.text)
    .text                                    0x08000a78   Section       16  rt_ctype_table.o(.text)
    .text                                    0x08000a88   Section        0  exit.o(.text)
    .text                                    0x08000a94   Section       10  rt_locale_twolibspace.o(.text)
    .text                                    0x08000a9e   Section       10  rt_fp_status_addr_twolibspace.o(.text)
    .text                                    0x08000aa8   Section      128  strcmpv7m.o(.text)
    .text                                    0x08000b28   Section        0  sys_exit.o(.text)
    .text                                    0x08000b34   Section        2  use_no_semi.o(.text)
    SVC_TABLE                                0x08000b38   Section        4  SVC_Table.o(SVC_TABLE)
    i.ADC_Cmd                                0x08000b3c   Section        0  stm32f10x_adc.o(i.ADC_Cmd)
    i.ADC_DMACmd                             0x08000b50   Section        0  stm32f10x_adc.o(i.ADC_DMACmd)
    i.ADC_GPIO_Configuration                 0x08000b64   Section        0  adc.o(i.ADC_GPIO_Configuration)
    i.ADC_GetCalibrationStatus               0x08000b80   Section        0  stm32f10x_adc.o(i.ADC_GetCalibrationStatus)
    i.ADC_GetResetCalibrationStatus          0x08000b8e   Section        0  stm32f10x_adc.o(i.ADC_GetResetCalibrationStatus)
    i.ADC_Init                               0x08000b9c   Section        0  stm32f10x_adc.o(i.ADC_Init)
    i.ADC_RegularChannelConfig               0x08000be4   Section        0  stm32f10x_adc.o(i.ADC_RegularChannelConfig)
    i.ADC_ResetCalibration                   0x08000c58   Section        0  stm32f10x_adc.o(i.ADC_ResetCalibration)
    i.ADC_SoftwareStartConvCmd               0x08000c62   Section        0  stm32f10x_adc.o(i.ADC_SoftwareStartConvCmd)
    i.ADC_StartCalibration                   0x08000c76   Section        0  stm32f10x_adc.o(i.ADC_StartCalibration)
    i.AUX_INPUT_STATUS                       0x08000c80   Section        0  anjian.o(i.AUX_INPUT_STATUS)
    i.Alarm_task                             0x08000c9c   Section        0  mainv1.o(i.Alarm_task)
    i.Answer_handshake                       0x08000d2c   Section        0  app.o(i.Answer_handshake)
    i.Area_Name_Save                         0x08000d8c   Section        0  app.o(i.Area_Name_Save)
    i.Area_Name_Update                       0x08000de0   Section        0  app.o(i.Area_Name_Update)
    i.AutoAdjustPower_task                   0x08000e34   Section        0  mainv1.o(i.AutoAdjustPower_task)
    i.AutoChoiceAudio_task                   0x08000f68   Section        0  mainv1.o(i.AutoChoiceAudio_task)
    i.BEEP_task                              0x08000fe4   Section        0  mainv1.o(i.BEEP_task)
    i.BKP_DeInit                             0x08001048   Section        0  stm32f10x_bkp.o(i.BKP_DeInit)
    i.BKP_ReadBackupRegister                 0x0800105c   Section        0  stm32f10x_bkp.o(i.BKP_ReadBackupRegister)
    i.BKP_WriteBackupRegister                0x08001068   Section        0  stm32f10x_bkp.o(i.BKP_WriteBackupRegister)
    i.BusFault_Handler                       0x08001074   Section        0  stm32f10x_it.o(i.BusFault_Handler)
    i.COM1_2Init                             0x08001078   Section        0  mainv1.o(i.COM1_2Init)
    i.Check_QN8027_tx                        0x08001178   Section        0  app.o(i.Check_QN8027_tx)
    i.CollectShowCurrent                     0x080011a0   Section        0  mainv1.o(i.CollectShowCurrent)
    i.CollectShowPower                       0x080011c4   Section        0  mainv1.o(i.CollectShowPower)
    i.CollectShowRPower                      0x080011dc   Section        0  mainv1.o(i.CollectShowRPower)
    i.CollectShowSWR                         0x080011f4   Section        0  mainv1.o(i.CollectShowSWR)
    i.CollectShowTempval                     0x0800122c   Section        0  mainv1.o(i.CollectShowTempval)
    i.CollectVIN                             0x08001250   Section        0  mainv1.o(i.CollectVIN)
    i.ComData_Verify                         0x08001280   Section        0  app.o(i.ComData_Verify)
    i.DAC5615Out                             0x08001298   Section        0  dac5615.o(i.DAC5615Out)
    i.DAC5615_Init                           0x0800131c   Section        0  dac5615.o(i.DAC5615_Init)
    i.DAC5615delay                           0x08001350   Section        0  dac5615.o(i.DAC5615delay)
    i.DMA_Cmd                                0x08001358   Section        0  stm32f10x_dma.o(i.DMA_Cmd)
    i.DMA_DeInit                             0x08001370   Section        0  stm32f10x_dma.o(i.DMA_DeInit)
    i.DMA_Init                               0x0800145c   Section        0  stm32f10x_dma.o(i.DMA_Init)
    i.DebugMon_Handler                       0x08001496   Section        0  stm32f10x_it.o(i.DebugMon_Handler)
    i.Delay_ms                               0x08001498   Section        0  mainv1.o(i.Delay_ms)
    i.Draw_Ascii6X8                          0x080014ac   Section        0  drawpicture.o(i.Draw_Ascii6X8)
    i.Draw_Ascii6X8_Downline                 0x0800150c   Section        0  drawpicture.o(i.Draw_Ascii6X8_Downline)
    i.Draw_Clear                             0x08001574   Section        0  drawpicture.o(i.Draw_Clear)
    i.Draw_Clear_DDRAM                       0x08001584   Section        0  drawpicture.o(i.Draw_Clear_DDRAM)
    i.Draw_Fill                              0x080015b0   Section        0  drawpicture.o(i.Draw_Fill)
    i.Draw_GetPointColor                     0x080015dc   Section        0  drawpicture.o(i.Draw_GetPointColor)
    i.Draw_Line                              0x08001600   Section        0  drawpicture.o(i.Draw_Line)
    i.Draw_Lump_fb                           0x080016da   Section        0  drawpicture.o(i.Draw_Lump_fb)
    i.Draw_Picture_logoRDS                   0x08001720   Section        0  drawpicture.o(i.Draw_Picture_logoRDS)
    i.Draw_Point                             0x08001758   Section        0  drawpicture.o(i.Draw_Point)
    i.Draw_Rect                              0x0800179c   Section        0  drawpicture.o(i.Draw_Rect)
    i.Draw_String6X8                         0x080017da   Section        0  drawpicture.o(i.Draw_String6X8)
    i.Draw_UpdateToLCD                       0x080017fc   Section        0  drawpicture.o(i.Draw_UpdateToLCD)
    i.Draw_XLine                             0x0800182c   Section        0  drawpicture.o(i.Draw_XLine)
    i.Draw_YLine                             0x08001858   Section        0  drawpicture.o(i.Draw_YLine)
    i.Dveid_Int                              0x08001884   Section        0  app.o(i.Dveid_Int)
    i.EEPROM_ReadBytes                       0x08001894   Section        0  24c32.o(i.EEPROM_ReadBytes)
    i.EEPROM_WriteBytes                      0x08001940   Section        0  24c32.o(i.EEPROM_WriteBytes)
    i.EXTI_ClearFlag                         0x080019a8   Section        0  stm32f10x_exti.o(i.EXTI_ClearFlag)
    i.EXTI_GetFlagStatus                     0x080019b4   Section        0  stm32f10x_exti.o(i.EXTI_GetFlagStatus)
    i.EXTI_Init                              0x080019c8   Section        0  stm32f10x_exti.o(i.EXTI_Init)
    i.GPIO_EXTILineConfig                    0x08001a4c   Section        0  stm32f10x_gpio.o(i.GPIO_EXTILineConfig)
    i.GPIO_Init                              0x08001a74   Section        0  stm32f10x_gpio.o(i.GPIO_Init)
    i.GPIO_ReadInputDataBit                  0x08001b10   Section        0  stm32f10x_gpio.o(i.GPIO_ReadInputDataBit)
    i.GPIO_ResetBits                         0x08001b1e   Section        0  stm32f10x_gpio.o(i.GPIO_ResetBits)
    i.GPIO_SetBits                           0x08001b22   Section        0  stm32f10x_gpio.o(i.GPIO_SetBits)
    i.Get_CollectCurrentVal                  0x08001b28   Section        0  mainv1.o(i.Get_CollectCurrentVal)
    i.Get_CollectTempval                     0x08001b44   Section        0  mainv1.o(i.Get_CollectTempval)
    i.Get_PowerValue                         0x08001b80   Section        0  mainv1.o(i.Get_PowerValue)
    i.Get_RPowerValue                        0x08001c04   Section        0  mainv1.o(i.Get_RPowerValue)
    i.HardFault_Handler                      0x08001c88   Section        0  stm32f10x_it.o(i.HardFault_Handler)
    i.I2CChkAck                              0x08001c8c   Section        0  pt2314.o(i.I2CChkAck)
    I2CChkAck                                0x08001c8d   Thumb Code    92  pt2314.o(i.I2CChkAck)
    i.I2CChkAck                              0x08001cec   Section        0  qn8027_driver.o(i.I2CChkAck)
    I2CChkAck                                0x08001ced   Thumb Code    92  qn8027_driver.o(i.I2CChkAck)
    i.I2CChkAck                              0x08001d4c   Section        0  24c32.o(i.I2CChkAck)
    I2CChkAck                                0x08001d4d   Thumb Code    90  24c32.o(i.I2CChkAck)
    i.I2CRead8Bit                            0x08001dac   Section        0  qn8027_driver.o(i.I2CRead8Bit)
    I2CRead8Bit                              0x08001dad   Thumb Code   120  qn8027_driver.o(i.I2CRead8Bit)
    i.I2CRead8Bit                            0x08001e28   Section        0  24c32.o(i.I2CRead8Bit)
    I2CRead8Bit                              0x08001e29   Thumb Code   108  24c32.o(i.I2CRead8Bit)
    i.I2CSlave_NOACK                         0x08001e98   Section        0  qn8027_driver.o(i.I2CSlave_NOACK)
    I2CSlave_NOACK                           0x08001e99   Thumb Code    44  qn8027_driver.o(i.I2CSlave_NOACK)
    i.I2CSlave_NOACK                         0x08001ec8   Section        0  24c32.o(i.I2CSlave_NOACK)
    I2CSlave_NOACK                           0x08001ec9   Thumb Code    40  24c32.o(i.I2CSlave_NOACK)
    i.I2CStart                               0x08001ef4   Section        0  pt2314.o(i.I2CStart)
    I2CStart                                 0x08001ef5   Thumb Code    58  pt2314.o(i.I2CStart)
    i.I2CStart                               0x08001f34   Section        0  qn8027_driver.o(i.I2CStart)
    I2CStart                                 0x08001f35   Thumb Code    58  qn8027_driver.o(i.I2CStart)
    i.I2CStart                               0x08001f74   Section        0  24c32.o(i.I2CStart)
    I2CStart                                 0x08001f75   Thumb Code    52  24c32.o(i.I2CStart)
    i.I2CStop                                0x08001fac   Section        0  pt2314.o(i.I2CStop)
    I2CStop                                  0x08001fad   Thumb Code    44  pt2314.o(i.I2CStop)
    i.I2CStop                                0x08001fdc   Section        0  qn8027_driver.o(i.I2CStop)
    I2CStop                                  0x08001fdd   Thumb Code    44  qn8027_driver.o(i.I2CStop)
    i.I2CStop                                0x0800200c   Section        0  24c32.o(i.I2CStop)
    I2CStop                                  0x0800200d   Thumb Code    40  24c32.o(i.I2CStop)
    i.I2CWrite8Bit                           0x08002038   Section        0  pt2314.o(i.I2CWrite8Bit)
    I2CWrite8Bit                             0x08002039   Thumb Code    78  pt2314.o(i.I2CWrite8Bit)
    i.I2CWrite8Bit                           0x0800208c   Section        0  qn8027_driver.o(i.I2CWrite8Bit)
    I2CWrite8Bit                             0x0800208d   Thumb Code    78  qn8027_driver.o(i.I2CWrite8Bit)
    i.I2CWrite8Bit                           0x080020e0   Section        0  24c32.o(i.I2CWrite8Bit)
    I2CWrite8Bit                             0x080020e1   Thumb Code    70  24c32.o(i.I2CWrite8Bit)
    i.InitTask                               0x0800212c   Section        0  mainv1.o(i.InitTask)
    i.KEY_DOWN_STATUS                        0x08002160   Section        0  anjian.o(i.KEY_DOWN_STATUS)
    i.KEY_DOWN_delayct                       0x08002184   Section        0  anjian.o(i.KEY_DOWN_delayct)
    i.KEY_LEFT_STATUS                        0x080021d0   Section        0  anjian.o(i.KEY_LEFT_STATUS)
    i.KEY_LEFT_delayct                       0x080021f8   Section        0  anjian.o(i.KEY_LEFT_delayct)
    i.KEY_MENU_STATUS                        0x08002244   Section        0  anjian.o(i.KEY_MENU_STATUS)
    i.KEY_OK_STATUS                          0x0800225a   Section        0  anjian.o(i.KEY_OK_STATUS)
    i.KEY_RDS_STATUS                         0x08002270   Section        0  anjian.o(i.KEY_RDS_STATUS)
    i.KEY_RIGHT_STATUS                       0x08002288   Section        0  anjian.o(i.KEY_RIGHT_STATUS)
    i.KEY_RIGHT_delayct                      0x080022ac   Section        0  anjian.o(i.KEY_RIGHT_delayct)
    i.KEY_Status_AllClear                    0x080022f8   Section        0  mainv1.o(i.KEY_Status_AllClear)
    i.KEY_UP_STATUS                          0x0800232c   Section        0  anjian.o(i.KEY_UP_STATUS)
    i.KEY_UP_delayct                         0x08002350   Section        0  anjian.o(i.KEY_UP_delayct)
    i.KEY_config                             0x0800239c   Section        0  mainv1.o(i.KEY_config)
    i.LCD19264_BG_Open                       0x080024b8   Section        0  lcd19264 driverv20.o(i.LCD19264_BG_Open)
    i.LCD19264_Clear                         0x080024c8   Section        0  lcd19264 driverv20.o(i.LCD19264_Clear)
    i.LCD19264_DisChar                       0x080024ec   Section        0  lcd19264 driverv20.o(i.LCD19264_DisChar)
    i.LCD19264_DisOFF                        0x08002544   Section        0  lcd19264 driverv20.o(i.LCD19264_DisOFF)
    i.LCD19264_DisON                         0x08002584   Section        0  lcd19264 driverv20.o(i.LCD19264_DisON)
    i.LCD19264_Display_String                0x080025c4   Section        0  lcd19264 driverv20.o(i.LCD19264_Display_String)
    i.LCD19264_Init                          0x080025e4   Section        0  lcd19264 driverv20.o(i.LCD19264_Init)
    i.LCD19264_Posbyte                       0x08002668   Section        0  lcd19264 driverv20.o(i.LCD19264_Posbyte)
    i.LCD19264_StartLine                     0x08002720   Section        0  lcd19264 driverv20.o(i.LCD19264_StartLine)
    i.LCD_WriteCMD                           0x0800276c   Section        0  lcd19264 driverv20.o(i.LCD_WriteCMD)
    LCD_WriteCMD                             0x0800276d   Thumb Code    50  lcd19264 driverv20.o(i.LCD_WriteCMD)
    i.LED_Blinking_task                      0x080027a8   Section        0  mainv1.o(i.LED_Blinking_task)
    i.MP3_INPUT_STATUS                       0x080027f0   Section        0  anjian.o(i.MP3_INPUT_STATUS)
    i.MemManage_Handler                      0x0800280a   Section        0  stm32f10x_it.o(i.MemManage_Handler)
    i.NMI_Handler                            0x0800280c   Section        0  stm32f10x_it.o(i.NMI_Handler)
    i.NVIC_Configuration                     0x0800280e   Section        0  mainv1.o(i.NVIC_Configuration)
    i.NVIC_Init                              0x0800287e   Section        0  misc.o(i.NVIC_Init)
    i.NVIC_PriorityGroupConfig               0x080028dc   Section        0  misc.o(i.NVIC_PriorityGroupConfig)
    i.PCRDS_Blinking_task                    0x080028f0   Section        0  mainv1.o(i.PCRDS_Blinking_task)
    i.PCRDS_set                              0x080029fc   Section        0  app.o(i.PCRDS_set)
    i.PS_Name_Save                           0x08002a98   Section        0  app.o(i.PS_Name_Save)
    i.PS_Name_Update                         0x08002ae8   Section        0  app.o(i.PS_Name_Update)
    i.PT2314_Init                            0x08002b38   Section        0  pt2314.o(i.PT2314_Init)
    i.PT2314_SetNRegs                        0x08002b90   Section        0  pt2314.o(i.PT2314_SetNRegs)
    i.PT2314_SetReg                          0x08002bce   Section        0  pt2314.o(i.PT2314_SetReg)
    i.PT2314_Setup_Bass                      0x08002bf8   Section        0  pt2314.o(i.PT2314_Setup_Bass)
    i.PT2314_Setup_CVD                       0x08002c10   Section        0  pt2314.o(i.PT2314_Setup_CVD)
    i.PT2314_Setup_Treble                    0x08002c4c   Section        0  pt2314.o(i.PT2314_Setup_Treble)
    i.PT2314_Setup_Volume                    0x08002c64   Section        0  pt2314.o(i.PT2314_Setup_Volume)
    i.PWR_BackupAccessCmd                    0x08002c84   Section        0  stm32f10x_pwr.o(i.PWR_BackupAccessCmd)
    i.Print_ZF_Table                         0x08002c90   Section        0  mainv1.o(i.Print_ZF_Table)
    i.QN8027_Delay                           0x08002ce0   Section        0  qn8027_driver.o(i.QN8027_Delay)
    i.QN8027_Init                            0x08002cfc   Section        0  qn8027_driver.o(i.QN8027_Init)
    i.QN8027_ReadReg                         0x08002db0   Section        0  qn8027_driver.o(i.QN8027_ReadReg)
    i.QN8027_WriteReg                        0x08002e00   Section        0  qn8027_driver.o(i.QN8027_WriteReg)
    i.QNd8027_SetChannel                     0x08002e40   Section        0  qn8027_driver.o(i.QNd8027_SetChannel)
    i.QndMute                                0x08002e6c   Section        0  qn8027_driver.o(i.QndMute)
    i.QndRdsMode                             0x08002e7e   Section        0  qn8027_driver.o(i.QndRdsMode)
    i.QndSetReg                              0x08002e94   Section        0  qn8027_driver.o(i.QndSetReg)
    i.RCC_AHBPeriphClockCmd                  0x08002ec0   Section        0  stm32f10x_rcc.o(i.RCC_AHBPeriphClockCmd)
    i.RCC_APB1PeriphClockCmd                 0x08002ed8   Section        0  stm32f10x_rcc.o(i.RCC_APB1PeriphClockCmd)
    i.RCC_APB1PeriphResetCmd                 0x08002ef0   Section        0  stm32f10x_rcc.o(i.RCC_APB1PeriphResetCmd)
    i.RCC_APB2PeriphClockCmd                 0x08002f08   Section        0  stm32f10x_rcc.o(i.RCC_APB2PeriphClockCmd)
    i.RCC_APB2PeriphResetCmd                 0x08002f20   Section        0  stm32f10x_rcc.o(i.RCC_APB2PeriphResetCmd)
    i.RCC_BackupResetCmd                     0x08002f38   Section        0  stm32f10x_rcc.o(i.RCC_BackupResetCmd)
    i.RCC_GetClocksFreq                      0x08002f44   Section        0  stm32f10x_rcc.o(i.RCC_GetClocksFreq)
    i.RCC_GetFlagStatus                      0x08002fdc   Section        0  stm32f10x_rcc.o(i.RCC_GetFlagStatus)
    i.RCC_LSEConfig                          0x0800300c   Section        0  stm32f10x_rcc.o(i.RCC_LSEConfig)
    i.RCC_RTCCLKCmd                          0x0800302c   Section        0  stm32f10x_rcc.o(i.RCC_RTCCLKCmd)
    i.RCC_RTCCLKConfig                       0x08003038   Section        0  stm32f10x_rcc.o(i.RCC_RTCCLKConfig)
    i.RDSData_Verify2                        0x08003048   Section        0  app.o(i.RDSData_Verify2)
    i.RDS_DevicesGroup_Mode_Save             0x0800305c   Section        0  app.o(i.RDS_DevicesGroup_Mode_Save)
    i.RDS_DevicesGroup_Mode_Update           0x080030c0   Section        0  app.o(i.RDS_DevicesGroup_Mode_Update)
    i.RDS_task                               0x08003120   Section        0  app.o(i.RDS_task)
    i.RDSsend_IDNum_task                     0x080031ac   Section        0  app.o(i.RDSsend_IDNum_task)
    i.RDSsend_NULL                           0x0800321c   Section        0  app.o(i.RDSsend_NULL)
    i.RDSsend_PS                             0x0800325c   Section        0  app.o(i.RDSsend_PS)
    i.RDSsend_Volume_task                    0x08003310   Section        0  app.o(i.RDSsend_Volume_task)
    i.RDSsend_area_allset                    0x08003358   Section        0  app.o(i.RDSsend_area_allset)
    i.RDSsend_pty                            0x08003400   Section        0  app.o(i.RDSsend_pty)
    i.RDSsend_state                          0x08003458   Section        0  app.o(i.RDSsend_state)
    i.RDSsend_txt                            0x08003570   Section        0  app.o(i.RDSsend_txt)
    i.RDSsend_txt_task                       0x08003614   Section        0  app.o(i.RDSsend_txt_task)
    i.RTC_ClearITPendingBit                  0x08003638   Section        0  stm32f10x_rtc.o(i.RTC_ClearITPendingBit)
    i.RTC_Configuration                      0x08003648   Section        0  mainv1.o(i.RTC_Configuration)
    i.RTC_EnterConfigMode                    0x080036a0   Section        0  stm32f10x_rtc.o(i.RTC_EnterConfigMode)
    i.RTC_ExitConfigMode                     0x080036b0   Section        0  stm32f10x_rtc.o(i.RTC_ExitConfigMode)
    i.RTC_GetCounter                         0x080036c0   Section        0  stm32f10x_rtc.o(i.RTC_GetCounter)
    i.RTC_GetITStatus                        0x080036d0   Section        0  stm32f10x_rtc.o(i.RTC_GetITStatus)
    i.RTC_IRQHandler                         0x080036f0   Section        0  stm32f10x_it.o(i.RTC_IRQHandler)
    i.RTC_ITConfig                           0x08003778   Section        0  stm32f10x_rtc.o(i.RTC_ITConfig)
    i.RTC_SetCounter                         0x08003794   Section        0  stm32f10x_rtc.o(i.RTC_SetCounter)
    i.RTC_SetPrescaler                       0x080037b0   Section        0  stm32f10x_rtc.o(i.RTC_SetPrescaler)
    i.RTC_WaitForLastTask                    0x080037d0   Section        0  stm32f10x_rtc.o(i.RTC_WaitForLastTask)
    i.RTC_WaitForSynchro                     0x080037e0   Section        0  stm32f10x_rtc.o(i.RTC_WaitForSynchro)
    i.Receive_areastate_int                  0x080037fc   Section        0  app.o(i.Receive_areastate_int)
    i.Receiveps_int                          0x08003858   Section        0  app.o(i.Receiveps_int)
    i.Receivetxt_int                         0x080038a4   Section        0  app.o(i.Receivetxt_int)
    i.SET_Audio_And_Time                     0x080038f0   Section        0  mainv1.o(i.SET_Audio_And_Time)
    i.SET_FM_And_RF_Power                    0x08003e80   Section        0  mainv1.o(i.SET_FM_And_RF_Power)
    i.SET_Temp_And_SWR                       0x080040c4   Section        0  mainv1.o(i.SET_Temp_And_SWR)
    i.SYS_PARAMETER_Save                     0x08004378   Section        0  app.o(i.SYS_PARAMETER_Save)
    i.SYS_PARAMETER_Update                   0x08004388   Section        0  app.o(i.SYS_PARAMETER_Update)
    i.SendByte                               0x0800445c   Section        0  lcd19264 driverv20.o(i.SendByte)
    SendByte                                 0x0800445d   Thumb Code    64  lcd19264 driverv20.o(i.SendByte)
    i.SetSysClockTo72                        0x080044a0   Section        0  system_stm32f10x.o(i.SetSysClockTo72)
    SetSysClockTo72                          0x080044a1   Thumb Code   138  system_stm32f10x.o(i.SetSysClockTo72)
    i.SetingWindos_DestroyFMchValue          0x08004534   Section        0  show.o(i.SetingWindos_DestroyFMchValue)
    i.SetingWindos_DestroyPowerValue         0x08004548   Section        0  show.o(i.SetingWindos_DestroyPowerValue)
    i.SetingWindos_ShowFMchValue             0x0800455c   Section        0  show.o(i.SetingWindos_ShowFMchValue)
    i.SetingWindos_ShowPowerValue            0x080045e8   Section        0  show.o(i.SetingWindos_ShowPowerValue)
    i.SetupSystemTime                        0x08004658   Section        0  mainv1.o(i.SetupSystemTime)
    i.Setup_Area_Name                        0x08004684   Section        0  mainv1.o(i.Setup_Area_Name)
    i.Setup_PS_Name                          0x08004a08   Section        0  mainv1.o(i.Setup_PS_Name)
    i.Setup_RDSMode                          0x08004d6c   Section        0  mainv1.o(i.Setup_RDSMode)
    i.Setup_RDS_Window                       0x080051b8   Section        0  mainv1.o(i.Setup_RDS_Window)
    i.Show_ALLSET_Area_Fullsetval            0x0800558c   Section        0  mainv1.o(i.Show_ALLSET_Area_Fullsetval)
    i.Show_ALLSET_Area_Name                  0x080055e4   Section        0  mainv1.o(i.Show_ALLSET_Area_Name)
    i.Show_ALLSET_devgb                      0x08005670   Section        0  mainv1.o(i.Show_ALLSET_devgb)
    i.Show_Area_Name                         0x08005698   Section        0  mainv1.o(i.Show_Area_Name)
    i.Show_DevStatus_Group                   0x080056f4   Section        0  mainv1.o(i.Show_DevStatus_Group)
    i.Show_DevStatus_One                     0x08005758   Section        0  mainv1.o(i.Show_DevStatus_One)
    i.Show_Device_hangnum                    0x080057b0   Section        0  mainv1.o(i.Show_Device_hangnum)
    i.Show_FM                                0x0800580c   Section        0  show.o(i.Show_FM)
    i.Show_FSRF_Logo                         0x080058a4   Section        0  show.o(i.Show_FSRF_Logo)
    i.Show_I                                 0x080058bc   Section        0  show.o(i.Show_I)
    i.Show_P                                 0x08005924   Section        0  show.o(i.Show_P)
    i.Show_PEVal                             0x080059a4   Section        0  show.o(i.Show_PEVal)
    i.Show_PS_Name                           0x080059fc   Section        0  mainv1.o(i.Show_PS_Name)
    i.Show_Picture                           0x08005a40   Section        0  show.o(i.Show_Picture)
    i.Show_RDS                               0x08005a98   Section        0  show.o(i.Show_RDS)
    i.Show_RDS_SetMode                       0x08005af8   Section        0  mainv1.o(i.Show_RDS_SetMode)
    i.Show_RDS_logox                         0x08005b3c   Section        0  show.o(i.Show_RDS_logox)
    i.Show_RP                                0x08005b54   Section        0  show.o(i.Show_RP)
    i.Show_SWR                               0x08005bbc   Section        0  show.o(i.Show_SWR)
    i.Show_T                                 0x08005bfc   Section        0  show.o(i.Show_T)
    i.Show_TX                                0x08005c50   Section        0  show.o(i.Show_TX)
    i.Show_Time                              0x08005c90   Section        0  show.o(i.Show_Time)
    i.Show_VOLB                              0x08005d3c   Section        0  show.o(i.Show_VOLB)
    i.Show_VOLH                              0x08005e30   Section        0  show.o(i.Show_VOLH)
    i.Show_Volume                            0x08005f24   Section        0  show.o(i.Show_Volume)
    i.SystemInit                             0x08005f64   Section        0  system_stm32f10x.o(i.SystemInit)
    i.TBval_Change                           0x08005fb4   Section        0  mainv1.o(i.TBval_Change)
    i.TIM3Init                               0x08005fe8   Section        0  mainv1.o(i.TIM3Init)
    i.TIM3_IRQHandler                        0x0800603c   Section        0  stm32f10x_it.o(i.TIM3_IRQHandler)
    i.TIM_ClearITPendingBit                  0x08006094   Section        0  stm32f10x_tim.o(i.TIM_ClearITPendingBit)
    i.TIM_Cmd                                0x0800609a   Section        0  stm32f10x_tim.o(i.TIM_Cmd)
    i.TIM_DeInit                             0x080060b0   Section        0  stm32f10x_tim.o(i.TIM_DeInit)
    i.TIM_ITConfig                           0x08006220   Section        0  stm32f10x_tim.o(i.TIM_ITConfig)
    i.TIM_TimeBaseInit                       0x08006230   Section        0  stm32f10x_tim.o(i.TIM_TimeBaseInit)
    i.USART1_IRQHandler                      0x080062cc   Section        0  stm32f10x_it.o(i.USART1_IRQHandler)
    i.USART2_IRQHandler                      0x080063b8   Section        0  stm32f10x_it.o(i.USART2_IRQHandler)
    i.USART_Cmd                              0x0800649c   Section        0  stm32f10x_usart.o(i.USART_Cmd)
    i.USART_GetITStatus                      0x080064b0   Section        0  stm32f10x_usart.o(i.USART_GetITStatus)
    i.USART_ITConfig                         0x080064ee   Section        0  stm32f10x_usart.o(i.USART_ITConfig)
    i.USART_Init                             0x08006520   Section        0  stm32f10x_usart.o(i.USART_Init)
    i.USART_ReceiveData                      0x080065d4   Section        0  stm32f10x_usart.o(i.USART_ReceiveData)
    i.USART_SendData                         0x080065dc   Section        0  stm32f10x_usart.o(i.USART_SendData)
    i.UpdateSystemTime                       0x080065e4   Section        0  mainv1.o(i.UpdateSystemTime)
    i.UsageFault_Handler                     0x0800661c   Section        0  stm32f10x_it.o(i.UsageFault_Handler)
    i.WaitUs                                 0x0800661e   Section        0  pt2314.o(i.WaitUs)
    WaitUs                                   0x0800661f   Thumb Code     8  pt2314.o(i.WaitUs)
    i.WaitUs                                 0x08006626   Section        0  qn8027_driver.o(i.WaitUs)
    WaitUs                                   0x08006627   Thumb Code     8  qn8027_driver.o(i.WaitUs)
    i.WaitUs                                 0x0800662e   Section        0  24c32.o(i.WaitUs)
    WaitUs                                   0x0800662f   Thumb Code     8  24c32.o(i.WaitUs)
    i.WriteCommandL                          0x08006638   Section        0  lcd19264 driverv20.o(i.WriteCommandL)
    WriteCommandL                            0x08006639   Thumb Code    36  lcd19264 driverv20.o(i.WriteCommandL)
    i.WriteCommandM                          0x08006660   Section        0  lcd19264 driverv20.o(i.WriteCommandM)
    WriteCommandM                            0x08006661   Thumb Code    36  lcd19264 driverv20.o(i.WriteCommandM)
    i.WriteCommandR                          0x08006688   Section        0  lcd19264 driverv20.o(i.WriteCommandR)
    WriteCommandR                            0x08006689   Thumb Code    36  lcd19264 driverv20.o(i.WriteCommandR)
    i.__user_perthread_libspace              0x080066b0   Section        0  rtx_conf_cm.o(i.__user_perthread_libspace)
    i._init_box                              0x080066d4   Section        0  rt_membox.o(i._init_box)
    i.adc_int                                0x0800671c   Section        0  adc.o(i.adc_int)
    i.answer                                 0x0800681c   Section        0  app.o(i.answer)
    i.comdata_task                           0x0800687c   Section        0  mainv1.o(i.comdata_task)
    i.dbg_init                               0x080068c0   Section        0  hal_cm3.o(i.dbg_init)
    i.dbg_task_notify                        0x080068f0   Section        0  hal_cm3.o(i.dbg_task_notify)
    i.dbg_task_switch                        0x08006910   Section        0  hal_cm3.o(i.dbg_task_switch)
    i.delay                                  0x08006920   Section        0  lcd19264 driverv20.o(i.delay)
    delay                                    0x08006921   Thumb Code     8  lcd19264 driverv20.o(i.delay)
    i.filter_I                               0x08006928   Section        0  mainv1.o(i.filter_I)
    i.filter_p                               0x080069b8   Section        0  mainv1.o(i.filter_p)
    i.filter_rp                              0x08006a48   Section        0  mainv1.o(i.filter_rp)
    i.filter_swr                             0x08006ad8   Section        0  mainv1.o(i.filter_swr)
    i.filter_t                               0x08006b54   Section        0  mainv1.o(i.filter_t)
    i.filter_vin                             0x08006be4   Section        0  mainv1.o(i.filter_vin)
    i.main                                   0x08006c74   Section        0  mainv1.o(i.main)
    i.main_task                              0x08006cec   Section        0  mainv1.o(i.main_task)
    i.os_error                               0x08007704   Section        0  rtx_conf_cm.o(i.os_error)
    i.os_idle_demon                          0x08007730   Section        0  rtx_conf_cm.o(i.os_idle_demon)
    i.os_tmr_call                            0x08007732   Section        0  rtx_conf_cm.o(i.os_tmr_call)
    i.protocol                               0x08007734   Section        0  app.o(i.protocol)
    i.ps_int                                 0x0800796c   Section        0  app.o(i.ps_int)
    i.rt_alloc_box                           0x080079a8   Section        0  rt_membox.o(i.rt_alloc_box)
    i.rt_block                               0x080079c4   Section        0  rt_task.o(i.rt_block)
    i.rt_chk_robin                           0x080079fc   Section        0  rt_robin.o(i.rt_chk_robin)
    i.rt_dec_dly                             0x08007a44   Section        0  rt_list.o(i.rt_dec_dly)
    i.rt_dispatch                            0x08007ac8   Section        0  rt_task.o(i.rt_dispatch)
    i.rt_dly_wait                            0x08007b0c   Section        0  rt_time.o(i.rt_dly_wait)
    i.rt_evt_clr                             0x08007b14   Section        0  rt_event.o(i.rt_evt_clr)
    i.rt_evt_psh                             0x08007b34   Section        0  rt_event.o(i.rt_evt_psh)
    i.rt_evt_set                             0x08007b88   Section        0  rt_event.o(i.rt_evt_set)
    i.rt_evt_wait                            0x08007bec   Section        0  rt_event.o(i.rt_evt_wait)
    i.rt_free_box                            0x08007c30   Section        0  rt_membox.o(i.rt_free_box)
    i.rt_get_first                           0x08007c50   Section        0  rt_list.o(i.rt_get_first)
    i.rt_init_context                        0x08007c78   Section        0  rt_task.o(i.rt_init_context)
    rt_init_context                          0x08007c79   Thumb Code    64  rt_task.o(i.rt_init_context)
    i.rt_init_robin                          0x08007cbc   Section        0  rt_robin.o(i.rt_init_robin)
    i.rt_init_stack                          0x08007cd4   Section        0  hal_cm3.o(i.rt_init_stack)
    i.rt_mbx_psh                             0x08007d28   Section        0  rt_mailbox.o(i.rt_mbx_psh)
    i.rt_mut_init                            0x08007df0   Section        0  rt_mutex.o(i.rt_mut_init)
    i.rt_mut_release                         0x08007e00   Section        0  rt_mutex.o(i.rt_mut_release)
    i.rt_mut_wait                            0x08007eac   Section        0  rt_mutex.o(i.rt_mut_wait)
    i.rt_pop_req                             0x08007f14   Section        0  rt_system.o(i.rt_pop_req)
    i.rt_put_dly                             0x08007f98   Section        0  rt_list.o(i.rt_put_dly)
    i.rt_put_prio                            0x08007ff0   Section        0  rt_list.o(i.rt_put_prio)
    i.rt_put_rdy_first                       0x08008028   Section        0  rt_list.o(i.rt_put_rdy_first)
    i.rt_resort_prio                         0x0800803c   Section        0  rt_list.o(i.rt_resort_prio)
    i.rt_rmv_dly                             0x08008070   Section        0  rt_list.o(i.rt_rmv_dly)
    i.rt_rmv_list                            0x0800809c   Section        0  rt_list.o(i.rt_rmv_list)
    i.rt_sem_psh                             0x080080cc   Section        0  rt_semaphore.o(i.rt_sem_psh)
    i.rt_stk_check                           0x08008100   Section        0  rtx_conf_cm.o(i.rt_stk_check)
    i.rt_switch_req                          0x08008104   Section        0  rt_task.o(i.rt_switch_req)
    i.rt_sys_init                            0x0800812c   Section        0  rt_task.o(i.rt_sys_init)
    i.rt_systick                             0x08008254   Section        0  rt_system.o(i.rt_systick)
    i.rt_tmr_tick                            0x08008290   Section        0  rt_timer.o(i.rt_tmr_tick)
    i.rt_tsk_create                          0x080082d0   Section        0  rt_task.o(i.rt_tsk_create)
    i.rt_tsk_delete                          0x08008360   Section        0  rt_task.o(i.rt_tsk_delete)
    i.rt_tsk_self                            0x0800840c   Section        0  rt_task.o(i.rt_tsk_self)
    i.send_pdata                             0x0800841c   Section        0  app.o(i.send_pdata)
    i.toggle                                 0x08008580   Section        0  app.o(i.toggle)
    i.turn                                   0x080085a2   Section        0  app.o(i.turn)
    i.txt_int                                0x080085c4   Section        0  app.o(i.txt_int)
    locale$$code                             0x080085fc   Section       44  lc_ctype_c.o(locale$$code)
    x$fpl$d2f                                0x08008628   Section       98  d2f.o(x$fpl$d2f)
    x$fpl$ddiv                               0x0800868c   Section      688  ddiv.o(x$fpl$ddiv)
    ddiv_entry                               0x08008693   Thumb Code     0  ddiv.o(x$fpl$ddiv)
    x$fpl$dfltu                              0x0800893c   Section       38  dflt_clz.o(x$fpl$dfltu)
    x$fpl$dnaninf                            0x08008962   Section      156  dnaninf.o(x$fpl$dnaninf)
    x$fpl$dretinf                            0x080089fe   Section       12  dretinf.o(x$fpl$dretinf)
    x$fpl$fadd                               0x08008a0c   Section      196  faddsub_clz.o(x$fpl$fadd)
    _fadd1                                   0x08008a1b   Thumb Code     0  faddsub_clz.o(x$fpl$fadd)
    x$fpl$fcheck1                            0x08008ad0   Section       12  fcheck1.o(x$fpl$fcheck1)
    x$fpl$fcmpinf                            0x08008adc   Section       24  fcmpi.o(x$fpl$fcmpinf)
    x$fpl$fdiv                               0x08008af4   Section      388  fdiv.o(x$fpl$fdiv)
    _fdiv1                                   0x08008af5   Thumb Code     0  fdiv.o(x$fpl$fdiv)
    x$fpl$ffixu                              0x08008c78   Section       62  ffixu.o(x$fpl$ffixu)
    x$fpl$ffltu                              0x08008cb8   Section       38  fflt_clz.o(x$fpl$ffltu)
    x$fpl$fleqf                              0x08008ce0   Section      104  fleqf.o(x$fpl$fleqf)
    x$fpl$fmul                               0x08008d48   Section      258  fmul.o(x$fpl$fmul)
    x$fpl$fnaninf                            0x08008e4a   Section      140  fnaninf.o(x$fpl$fnaninf)
    x$fpl$fpinit                             0x08008ed6   Section       14  fpinit.o(x$fpl$fpinit)
    x$fpl$fretinf                            0x08008ee4   Section       10  fretinf.o(x$fpl$fretinf)
    x$fpl$frleqf                             0x08008eee   Section       98  frleqf.o(x$fpl$frleqf)
    x$fpl$fsub                               0x08008f50   Section      234  faddsub_clz.o(x$fpl$fsub)
    _fsub1                                   0x08008f5f   Thumb Code     0  faddsub_clz.o(x$fpl$fsub)
    x$fpl$retnan                             0x0800903a   Section      100  retnan.o(x$fpl$retnan)
    x$fpl$scalbnf                            0x0800909e   Section       80  scalbnf.o(x$fpl$scalbnf)
    x$fpl$trapveneer                         0x080090ee   Section       48  trapv.o(x$fpl$trapveneer)
    .constdata                               0x0800911e   Section        2  rtx_conf_cm.o(.constdata)
    x$fpl$usenofp                            0x0800911e   Section        0  usenofp.o(x$fpl$usenofp)
    .constdata                               0x08009120   Section        4  rtx_conf_cm.o(.constdata)
    .constdata                               0x08009124   Section        4  rtx_conf_cm.o(.constdata)
    .constdata                               0x08009128   Section        4  rtx_conf_cm.o(.constdata)
    .constdata                               0x0800912c   Section        1  rtx_conf_cm.o(.constdata)
    .constdata                               0x08009130   Section        8  rtx_conf_cm.o(.constdata)
    __tagsym$$used                           0x08009130   Number         0  rtx_conf_cm.o(.constdata)
    __tagsym$$used                           0x08009134   Number         0  rtx_conf_cm.o(.constdata)
    .constdata                               0x08009138   Section        2  rtx_conf_cm.o(.constdata)
    .constdata                               0x0800913c   Section        4  rtx_conf_cm.o(.constdata)
    .constdata                               0x08009140   Section        1  rtx_conf_cm.o(.constdata)
    .constdata                               0x08009142   Section        2  rtx_conf_cm.o(.constdata)
    .constdata                               0x08009144   Section      104  mainv1.o(.constdata)
    .constdata                               0x080091ac   Section     2072  lcd19264 driverv20.o(.constdata)
    .constdata                               0x080099c4   Section      768  drawpicture.o(.constdata)
    .constdata                               0x08009cc4   Section      368  show.o(.constdata)
    .constdata                               0x08009e34   Section        8  show.o(.constdata)
    .constdata                               0x08009e3c   Section        8  show.o(.constdata)
    .constdata                               0x08009e44   Section        8  show.o(.constdata)
    .constdata                               0x08009e4c   Section        8  show.o(.constdata)
    .constdata                               0x08009e54   Section        8  show.o(.constdata)
    .constdata                               0x08009e5c   Section        8  show.o(.constdata)
    .constdata                               0x08009e64   Section        8  show.o(.constdata)
    .constdata                               0x08009e6c   Section       11  show.o(.constdata)
    .constdata                               0x08009e77   Section       11  show.o(.constdata)
    .constdata                               0x08009e82   Section       11  show.o(.constdata)
    .constdata                               0x08009e8d   Section       11  show.o(.constdata)
    .constdata                               0x08009e98   Section       26  show.o(.constdata)
    locale$$data                             0x08009ed4   Section      272  lc_ctype_c.o(locale$$data)
    __lcctype_c_name                         0x08009ed8   Data           2  lc_ctype_c.o(locale$$data)
    __lcctype_c_start                        0x08009ee0   Data           0  lc_ctype_c.o(locale$$data)
    __lcctype_c_end                          0x08009fe4   Data           0  lc_ctype_c.o(locale$$data)
    .data                                    0x20000000   Section       20  stm32f10x_rcc.o(.data)
    ADCPrescTable                            0x20000000   Data           4  stm32f10x_rcc.o(.data)
    APBAHBPrescTable                         0x20000004   Data          16  stm32f10x_rcc.o(.data)
    .data                                    0x20000014   Section        4  rtx_conf_cm.o(.data)
    .data                                    0x20000018   Section      324  mainv1.o(.data)
    count_t                                  0x2000002b   Data           1  mainv1.o(.data)
    count_p                                  0x2000002c   Data           1  mainv1.o(.data)
    count_rp                                 0x2000002d   Data           1  mainv1.o(.data)
    count_i                                  0x2000002e   Data           1  mainv1.o(.data)
    count_swr                                0x2000002f   Data           1  mainv1.o(.data)
    count_vin                                0x20000030   Data           1  mainv1.o(.data)
    .data                                    0x2000015c   Section        1  mainv1.o(.data)
    .data                                    0x2000015d   Section        1  mainv1.o(.data)
    .data                                    0x2000015e   Section        1  mainv1.o(.data)
    .data                                    0x2000015f   Section        1  mainv1.o(.data)
    .data                                    0x20000160   Section        1  mainv1.o(.data)
    .data                                    0x20000162   Section        2  mainv1.o(.data)
    .data                                    0x20000164   Section        1  mainv1.o(.data)
    .data                                    0x20000165   Section        1  mainv1.o(.data)
    .data                                    0x20000166   Section        1  mainv1.o(.data)
    .data                                    0x20000167   Section        1  mainv1.o(.data)
    .data                                    0x20000168   Section        1  mainv1.o(.data)
    .data                                    0x20000169   Section        1  mainv1.o(.data)
    .data                                    0x2000016a   Section        1  mainv1.o(.data)
    .data                                    0x2000016b   Section        1  mainv1.o(.data)
    .data                                    0x2000016c   Section        1  mainv1.o(.data)
    .data                                    0x2000016d   Section        1  mainv1.o(.data)
    .data                                    0x2000016e   Section        2  mainv1.o(.data)
    .data                                    0x20000170   Section        4  mainv1.o(.data)
    .data                                    0x20000174   Section        1  pt2314.o(.data)
    .data                                    0x20000175   Section        3  qn8027_driver.o(.data)
    .data                                    0x20000178   Section       24  anjian.o(.data)
    .data                                    0x20000190   Section        1  24c32.o(.data)
    .data                                    0x20000194   Section      100  app.o(.data)
    zuhao                                    0x2000019e   Data           1  app.o(.data)
    CurValue                                 0x2000019f   Data           1  app.o(.data)
    PreValue                                 0x200001a0   Data           1  app.o(.data)
    tmp                                      0x200001a1   Data           1  app.o(.data)
    .data                                    0x200001f8   Section        1  app.o(.data)
    .data                                    0x200001fc   Section        8  rt_task.o(.data)
    .data                                    0x20000204   Section        2  rt_time.o(.data)
    .data                                    0x20000206   Section        1  hal_cm3.o(.data)
    .data                                    0x20000207   Section        2  rt_system.o(.data)
    os_lock                                  0x20000207   Data           1  rt_system.o(.data)
    os_psh_flag                              0x20000208   Data           1  rt_system.o(.data)
    .data                                    0x2000020c   Section        8  rt_robin.o(.data)
    .data                                    0x20000214   Section        8  rt_timer.o(.data)
    .bss                                     0x2000021c   Section      588  rtx_conf_cm.o(.bss)
    .bss                                     0x20000468   Section    13016  rtx_conf_cm.o(.bss)
    .bss                                     0x20003740   Section      260  rtx_conf_cm.o(.bss)
    .bss                                     0x20003844   Section       48  rtx_conf_cm.o(.bss)
    .bss                                     0x20003874   Section     1248  rtx_conf_cm.o(.bss)
    std_libspace                             0x20003874   Data        1152  rtx_conf_cm.o(.bss)
    std_libmutex                             0x20003cf4   Data          96  rtx_conf_cm.o(.bss)
    .bss                                     0x20003d58   Section     1622  mainv1.o(.bss)
    main_task_stack                          0x20003d58   Data         800  mainv1.o(.bss)
    .bss                                     0x200043ae   Section       32  mainv1.o(.bss)
    .bss                                     0x200043ce   Section       32  mainv1.o(.bss)
    .bss                                     0x200043ee   Section     1536  drawpicture.o(.bss)
    .bss                                     0x200049f0   Section      504  app.o(.bss)
    state_tmp                                0x20004a60   Data         375  app.o(.bss)
    .bss                                     0x20004be8   Section       74  adc.o(.bss)
    .bss                                     0x20004c34   Section       48  rt_task.o(.bss)
    .bss                                     0x20004c64   Section       48  rt_list.o(.bss)
    .bss                                     0x20004c94   Section       96  libspace.o(.bss)
    HEAP                                     0x20004cf8   Section      512  startup_stm32f10x_md.o(HEAP)
    Heap_Mem                                 0x20004cf8   Data         512  startup_stm32f10x_md.o(HEAP)
    STACK                                    0x20004ef8   Section     1024  startup_stm32f10x_md.o(STACK)
    Stack_Mem                                0x20004ef8   Data        1024  startup_stm32f10x_md.o(STACK)
    __initial_sp                             0x200052f8   Data           0  startup_stm32f10x_md.o(STACK)

    Global Symbols

    Symbol Name                              Value     Ov Type        Size  Object(Section)

    BuildAttributes$$THM_ISAv4$P$D$K$B$S$PE$A:L22UL41UL21$X:L11$S22US41US21$IEEE1$IW$USESV6$~STKCKD$USESV7$~SHL$OSPACE$ROPI$EBA8$UX$STANDARDLIB$REQ8$PRES8$EABIv2 0x00000000   Number         0  anon$$obj.o ABSOLUTE
    __ARM_use_no_argv                        0x00000000   Number         0  mainv1.o ABSOLUTE
    __ARM_exceptions_init                     - Undefined Weak Reference
    __alloca_initialize                       - Undefined Weak Reference
    __cpp_initialize__aeabi_                  - Undefined Weak Reference
    __cxa_finalize                            - Undefined Weak Reference
    __fpl_infinity                            - Undefined Weak Reference
    __sigvec_lookup                           - Undefined Weak Reference
    _atexit_init                              - Undefined Weak Reference
    _call_atexit_fns                          - Undefined Weak Reference
    _clock_init                               - Undefined Weak Reference
    _fp_trap_init                             - Undefined Weak Reference
    _fp_trap_shutdown                         - Undefined Weak Reference
    _get_lc_collate                           - Undefined Weak Reference
    _get_lc_monetary                          - Undefined Weak Reference
    _get_lc_numeric                           - Undefined Weak Reference
    _get_lc_time                              - Undefined Weak Reference
    _getenv_init                              - Undefined Weak Reference
    _handle_redirection                       - Undefined Weak Reference
    _init_alloc                               - Undefined Weak Reference
    _init_user_alloc                          - Undefined Weak Reference
    _initio                                   - Undefined Weak Reference
    _rand_init                                - Undefined Weak Reference
    _scanf_int                                - Undefined Weak Reference
    _scanf_longlong                           - Undefined Weak Reference
    _scanf_mbtowc                             - Undefined Weak Reference
    _scanf_real                               - Undefined Weak Reference
    _scanf_wctomb                             - Undefined Weak Reference
    _scanf_wstring                            - Undefined Weak Reference
    _signal_finish                            - Undefined Weak Reference
    _signal_init                              - Undefined Weak Reference
    _terminate_alloc                          - Undefined Weak Reference
    _terminate_user_alloc                     - Undefined Weak Reference
    _terminateio                              - Undefined Weak Reference
    __Vectors_Size                           0x000000ec   Number         0  startup_stm32f10x_md.o ABSOLUTE
    __RL_RTX_VER                             0x00000420   Number         0  rt_system.o ABSOLUTE
    __Vectors                                0x08000000   Data           4  startup_stm32f10x_md.o(RESET)
    __Vectors_End                            0x080000ec   Data           0  startup_stm32f10x_md.o(RESET)
    __main                                   0x080000ed   Thumb Code     8  __main.o(!!!main)
    __scatterload                            0x080000f5   Thumb Code     0  __scatter.o(!!!scatter)
    __scatterload_rt2                        0x080000f5   Thumb Code    44  __scatter.o(!!!scatter)
    __scatterload_rt2_thumb_only             0x080000f5   Thumb Code     0  __scatter.o(!!!scatter)
    __scatterload_null                       0x08000103   Thumb Code     0  __scatter.o(!!!scatter)
    __decompress                             0x08000129   Thumb Code    90  __dczerorl2.o(!!dczerorl2)
    __decompress1                            0x08000129   Thumb Code     0  __dczerorl2.o(!!dczerorl2)
    __scatterload_zeroinit                   0x08000185   Thumb Code    28  __scatter_zi.o(!!handler_zi)
    __rt_lib_init                            0x080001a1   Thumb Code     0  libinit.o(.ARM.Collect$$libinit$$00000000)
    __rt_lib_init_heap_1                     0x080001a7   Thumb Code     0  libinit2.o(.ARM.Collect$$libinit$$00000006)
    __rt_lib_init_lc_common                  0x080001a7   Thumb Code     0  libinit2.o(.ARM.Collect$$libinit$$0000000B)
    __rt_lib_init_rand_1                     0x080001a7   Thumb Code     0  libinit2.o(.ARM.Collect$$libinit$$0000000A)
    __rt_lib_init_user_alloc_1               0x080001a7   Thumb Code     0  libinit2.o(.ARM.Collect$$libinit$$00000008)
    __rt_lib_init_lc_collate_1               0x080001ad   Thumb Code     0  libinit2.o(.ARM.Collect$$libinit$$0000000D)
    __rt_lib_init_lc_ctype_2                 0x080001ad   Thumb Code     0  libinit2.o(.ARM.Collect$$libinit$$0000000E)
    __rt_lib_init_alloca_1                   0x080001b9   Thumb Code     0  libinit2.o(.ARM.Collect$$libinit$$0000002A)
    __rt_lib_init_argv_1                     0x080001b9   Thumb Code     0  libinit2.o(.ARM.Collect$$libinit$$00000028)
    __rt_lib_init_atexit_1                   0x080001b9   Thumb Code     0  libinit2.o(.ARM.Collect$$libinit$$00000017)
    __rt_lib_init_clock_1                    0x080001b9   Thumb Code     0  libinit2.o(.ARM.Collect$$libinit$$0000001D)
    __rt_lib_init_cpp_1                      0x080001b9   Thumb Code     0  libinit2.o(.ARM.Collect$$libinit$$0000002E)
    __rt_lib_init_exceptions_1               0x080001b9   Thumb Code     0  libinit2.o(.ARM.Collect$$libinit$$0000002C)
    __rt_lib_init_fp_trap_1                  0x080001b9   Thumb Code     0  libinit2.o(.ARM.Collect$$libinit$$0000001B)
    __rt_lib_init_getenv_1                   0x080001b9   Thumb Code     0  libinit2.o(.ARM.Collect$$libinit$$0000001F)
    __rt_lib_init_lc_ctype_1                 0x080001b9   Thumb Code     0  libinit2.o(.ARM.Collect$$libinit$$0000000F)
    __rt_lib_init_lc_monetary_1              0x080001b9   Thumb Code     0  libinit2.o(.ARM.Collect$$libinit$$00000011)
    __rt_lib_init_lc_numeric_1               0x080001b9   Thumb Code     0  libinit2.o(.ARM.Collect$$libinit$$00000013)
    __rt_lib_init_lc_time_1                  0x080001b9   Thumb Code     0  libinit2.o(.ARM.Collect$$libinit$$00000015)
    __rt_lib_init_return                     0x080001b9   Thumb Code     0  libinit2.o(.ARM.Collect$$libinit$$0000002F)
    __rt_lib_init_signal_1                   0x080001b9   Thumb Code     0  libinit2.o(.ARM.Collect$$libinit$$00000019)
    __rt_lib_init_stdio_1                    0x080001b9   Thumb Code     0  libinit2.o(.ARM.Collect$$libinit$$00000021)
    __rt_lib_shutdown                        0x080001bb   Thumb Code     0  libshutdown.o(.ARM.Collect$$libshutdown$$00000000)
    __rt_lib_shutdown_fp_trap_1              0x080001bd   Thumb Code     0  libshutdown2.o(.ARM.Collect$$libshutdown$$00000006)
    __rt_lib_shutdown_heap_1                 0x080001bd   Thumb Code     0  libshutdown2.o(.ARM.Collect$$libshutdown$$0000000E)
    __rt_lib_shutdown_return                 0x080001bd   Thumb Code     0  libshutdown2.o(.ARM.Collect$$libshutdown$$0000000F)
    __rt_lib_shutdown_signal_1               0x080001bd   Thumb Code     0  libshutdown2.o(.ARM.Collect$$libshutdown$$00000009)
    __rt_lib_shutdown_stdio_1                0x080001bd   Thumb Code     0  libshutdown2.o(.ARM.Collect$$libshutdown$$00000003)
    __rt_lib_shutdown_user_alloc_1           0x080001bd   Thumb Code     0  libshutdown2.o(.ARM.Collect$$libshutdown$$0000000B)
    __rt_entry                               0x080001bf   Thumb Code     0  rtentry.o(.ARM.Collect$$rtentry$$00000000)
    __rt_entry_presh_1                       0x080001bf   Thumb Code     0  rtentry2.o(.ARM.Collect$$rtentry$$00000002)
    __rt_entry_sh                            0x080001bf   Thumb Code     0  rtentry4.o(.ARM.Collect$$rtentry$$00000004)
    __rt_entry_li                            0x080001c5   Thumb Code     0  rtentry2.o(.ARM.Collect$$rtentry$$0000000A)
    __rt_entry_postsh_1                      0x080001c5   Thumb Code     0  rtentry2.o(.ARM.Collect$$rtentry$$00000009)
    __rt_entry_main                          0x080001c9   Thumb Code     0  rtentry2.o(.ARM.Collect$$rtentry$$0000000D)
    __rt_entry_postli_1                      0x080001c9   Thumb Code     0  rtentry2.o(.ARM.Collect$$rtentry$$0000000C)
    __rt_exit                                0x080001d1   Thumb Code     0  rtexit.o(.ARM.Collect$$rtexit$$00000000)
    __rt_exit_ls                             0x080001d3   Thumb Code     0  rtexit2.o(.ARM.Collect$$rtexit$$00000003)
    __rt_exit_prels_1                        0x080001d3   Thumb Code     0  rtexit2.o(.ARM.Collect$$rtexit$$00000002)
    __rt_exit_exit                           0x080001d7   Thumb Code     0  rtexit2.o(.ARM.Collect$$rtexit$$00000004)
    rt_set_PSP                               0x080001dd   Thumb Code     6  hal_cm3.o(.emb_text)
    os_set_env                               0x080001e3   Thumb Code    26  hal_cm3.o(.emb_text)
    _alloc_box                               0x08000201   Thumb Code    28  hal_cm3.o(.emb_text)
    _free_box                                0x08000221   Thumb Code    28  hal_cm3.o(.emb_text)
    SVC_Handler                              0x08000241   Thumb Code   132  hal_cm3.o(.emb_text)
    PendSV_Handler                           0x080002d1   Thumb Code     0  hal_cm3.o(.emb_text)
    Sys_Handler                              0x080002d1   Thumb Code    84  hal_cm3.o(.emb_text)
    SysTick_Handler                          0x0800031d   Thumb Code     0  hal_cm3.o(.emb_text)
    Reset_Handler                            0x08000329   Thumb Code     8  startup_stm32f10x_md.o(.text)
    ADC1_2_IRQHandler                        0x08000343   Thumb Code     0  startup_stm32f10x_md.o(.text)
    CAN1_RX1_IRQHandler                      0x08000343   Thumb Code     0  startup_stm32f10x_md.o(.text)
    CAN1_SCE_IRQHandler                      0x08000343   Thumb Code     0  startup_stm32f10x_md.o(.text)
    DMA1_Channel1_IRQHandler                 0x08000343   Thumb Code     0  startup_stm32f10x_md.o(.text)
    DMA1_Channel2_IRQHandler                 0x08000343   Thumb Code     0  startup_stm32f10x_md.o(.text)
    DMA1_Channel3_IRQHandler                 0x08000343   Thumb Code     0  startup_stm32f10x_md.o(.text)
    DMA1_Channel4_IRQHandler                 0x08000343   Thumb Code     0  startup_stm32f10x_md.o(.text)
    DMA1_Channel5_IRQHandler                 0x08000343   Thumb Code     0  startup_stm32f10x_md.o(.text)
    DMA1_Channel6_IRQHandler                 0x08000343   Thumb Code     0  startup_stm32f10x_md.o(.text)
    DMA1_Channel7_IRQHandler                 0x08000343   Thumb Code     0  startup_stm32f10x_md.o(.text)
    EXTI0_IRQHandler                         0x08000343   Thumb Code     0  startup_stm32f10x_md.o(.text)
    EXTI15_10_IRQHandler                     0x08000343   Thumb Code     0  startup_stm32f10x_md.o(.text)
    EXTI1_IRQHandler                         0x08000343   Thumb Code     0  startup_stm32f10x_md.o(.text)
    EXTI2_IRQHandler                         0x08000343   Thumb Code     0  startup_stm32f10x_md.o(.text)
    EXTI3_IRQHandler                         0x08000343   Thumb Code     0  startup_stm32f10x_md.o(.text)
    EXTI4_IRQHandler                         0x08000343   Thumb Code     0  startup_stm32f10x_md.o(.text)
    EXTI9_5_IRQHandler                       0x08000343   Thumb Code     0  startup_stm32f10x_md.o(.text)
    FLASH_IRQHandler                         0x08000343   Thumb Code     0  startup_stm32f10x_md.o(.text)
    I2C1_ER_IRQHandler                       0x08000343   Thumb Code     0  startup_stm32f10x_md.o(.text)
    I2C1_EV_IRQHandler                       0x08000343   Thumb Code     0  startup_stm32f10x_md.o(.text)
    I2C2_ER_IRQHandler                       0x08000343   Thumb Code     0  startup_stm32f10x_md.o(.text)
    I2C2_EV_IRQHandler                       0x08000343   Thumb Code     0  startup_stm32f10x_md.o(.text)
    PVD_IRQHandler                           0x08000343   Thumb Code     0  startup_stm32f10x_md.o(.text)
    RCC_IRQHandler                           0x08000343   Thumb Code     0  startup_stm32f10x_md.o(.text)
    RTCAlarm_IRQHandler                      0x08000343   Thumb Code     0  startup_stm32f10x_md.o(.text)
    SPI1_IRQHandler                          0x08000343   Thumb Code     0  startup_stm32f10x_md.o(.text)
    SPI2_IRQHandler                          0x08000343   Thumb Code     0  startup_stm32f10x_md.o(.text)
    TAMPER_IRQHandler                        0x08000343   Thumb Code     0  startup_stm32f10x_md.o(.text)
    TIM1_BRK_IRQHandler                      0x08000343   Thumb Code     0  startup_stm32f10x_md.o(.text)
    TIM1_CC_IRQHandler                       0x08000343   Thumb Code     0  startup_stm32f10x_md.o(.text)
    TIM1_TRG_COM_IRQHandler                  0x08000343   Thumb Code     0  startup_stm32f10x_md.o(.text)
    TIM1_UP_IRQHandler                       0x08000343   Thumb Code     0  startup_stm32f10x_md.o(.text)
    TIM2_IRQHandler                          0x08000343   Thumb Code     0  startup_stm32f10x_md.o(.text)
    TIM4_IRQHandler                          0x08000343   Thumb Code     0  startup_stm32f10x_md.o(.text)
    USART3_IRQHandler                        0x08000343   Thumb Code     0  startup_stm32f10x_md.o(.text)
    USBWakeUp_IRQHandler                     0x08000343   Thumb Code     0  startup_stm32f10x_md.o(.text)
    USB_HP_CAN1_TX_IRQHandler                0x08000343   Thumb Code     0  startup_stm32f10x_md.o(.text)
    USB_LP_CAN1_RX0_IRQHandler               0x08000343   Thumb Code     0  startup_stm32f10x_md.o(.text)
    WWDG_IRQHandler                          0x08000343   Thumb Code     0  startup_stm32f10x_md.o(.text)
    __user_initial_stackheap                 0x08000345   Thumb Code     0  startup_stm32f10x_md.o(.text)
    __user_libspace                          0x08000369   Thumb Code     8  libspace.o(.text)
    __user_perproc_libspace                  0x08000369   Thumb Code     0  libspace.o(.text)
    __0sscanf                                0x08000371   Thumb Code    52  __0sscanf.o(.text)
    _scanf_string                            0x080003ad   Thumb Code   222  _scanf_str.o(.text)
    __aeabi_memcpy                           0x0800048b   Thumb Code     0  rt_memcpy_v6.o(.text)
    __rt_memcpy                              0x0800048b   Thumb Code   138  rt_memcpy_v6.o(.text)
    _memcpy_lastbytes                        0x080004f1   Thumb Code     0  rt_memcpy_v6.o(.text)
    __aeabi_memset                           0x08000515   Thumb Code    16  aeabi_memset.o(.text)
    __aeabi_memclr                           0x08000525   Thumb Code     0  rt_memclr.o(.text)
    __rt_memclr                              0x08000525   Thumb Code    68  rt_memclr.o(.text)
    _memset                                  0x08000529   Thumb Code     0  rt_memclr.o(.text)
    __aeabi_memclr4                          0x08000569   Thumb Code     0  rt_memclr_w.o(.text)
    __aeabi_memclr8                          0x08000569   Thumb Code     0  rt_memclr_w.o(.text)
    __rt_memclr_w                            0x08000569   Thumb Code    78  rt_memclr_w.o(.text)
    _memset_w                                0x0800056d   Thumb Code     0  rt_memclr_w.o(.text)
    __use_two_region_memory                  0x080005b7   Thumb Code     2  heapauxi.o(.text)
    __rt_heap_escrow$2region                 0x080005b9   Thumb Code     2  heapauxi.o(.text)
    __rt_heap_expand$2region                 0x080005bb   Thumb Code     2  heapauxi.o(.text)
    __vfscanf_char                           0x080005c9   Thumb Code    26  scanf_char.o(.text)
    _sgetc                                   0x080005ed   Thumb Code    30  _sgetc.o(.text)
    _sbackspace                              0x0800060b   Thumb Code    34  _sgetc.o(.text)
    __aeabi_memcpy4                          0x0800062d   Thumb Code     0  rt_memcpy_w.o(.text)
    __aeabi_memcpy8                          0x0800062d   Thumb Code     0  rt_memcpy_w.o(.text)
    __rt_memcpy_w                            0x0800062d   Thumb Code   100  rt_memcpy_w.o(.text)
    _memcpy_lastbytes_aligned                0x08000675   Thumb Code     0  rt_memcpy_w.o(.text)
    isspace                                  0x08000691   Thumb Code    18  isspace.o(.text)
    __vfscanf                                0x080006a5   Thumb Code   900  _scanf.o(.text)
    __user_setup_stackheap                   0x08000a2d   Thumb Code    74  sys_stackheap_outer.o(.text)
    __rt_ctype_table                         0x08000a79   Thumb Code    16  rt_ctype_table.o(.text)
    exit                                     0x08000a89   Thumb Code    12  exit.o(.text)
    __rt_locale                              0x08000a95   Thumb Code    10  rt_locale_twolibspace.o(.text)
    __rt_fp_status_addr                      0x08000a9f   Thumb Code    10  rt_fp_status_addr_twolibspace.o(.text)
    strcmp                                   0x08000aa9   Thumb Code   128  strcmpv7m.o(.text)
    _sys_exit                                0x08000b29   Thumb Code     8  sys_exit.o(.text)
    __I$use$semihosting                      0x08000b35   Thumb Code     0  use_no_semi.o(.text)
    __use_no_semihosting_swi                 0x08000b35   Thumb Code     2  use_no_semi.o(.text)
    SVC_Count                                0x08000b38   Data           4  SVC_Table.o(SVC_TABLE)
    ADC_Cmd                                  0x08000b3d   Thumb Code    20  stm32f10x_adc.o(i.ADC_Cmd)
    SVC_Table                                0x08000b3c   Data           0  SVC_Table.o(SVC_TABLE)
    ADC_DMACmd                               0x08000b51   Thumb Code    20  stm32f10x_adc.o(i.ADC_DMACmd)
    ADC_GPIO_Configuration                   0x08000b65   Thumb Code    24  adc.o(i.ADC_GPIO_Configuration)
    ADC_GetCalibrationStatus                 0x08000b81   Thumb Code    14  stm32f10x_adc.o(i.ADC_GetCalibrationStatus)
    ADC_GetResetCalibrationStatus            0x08000b8f   Thumb Code    14  stm32f10x_adc.o(i.ADC_GetResetCalibrationStatus)
    ADC_Init                                 0x08000b9d   Thumb Code    62  stm32f10x_adc.o(i.ADC_Init)
    ADC_RegularChannelConfig                 0x08000be5   Thumb Code   116  stm32f10x_adc.o(i.ADC_RegularChannelConfig)
    ADC_ResetCalibration                     0x08000c59   Thumb Code    10  stm32f10x_adc.o(i.ADC_ResetCalibration)
    ADC_SoftwareStartConvCmd                 0x08000c63   Thumb Code    20  stm32f10x_adc.o(i.ADC_SoftwareStartConvCmd)
    ADC_StartCalibration                     0x08000c77   Thumb Code    10  stm32f10x_adc.o(i.ADC_StartCalibration)
    AUX_INPUT_STATUS                         0x08000c81   Thumb Code    26  anjian.o(i.AUX_INPUT_STATUS)
    Alarm_task                               0x08000c9d   Thumb Code   112  mainv1.o(i.Alarm_task)
    Answer_handshake                         0x08000d2d   Thumb Code    64  app.o(i.Answer_handshake)
    Area_Name_Save                           0x08000d8d   Thumb Code    76  app.o(i.Area_Name_Save)
    Area_Name_Update                         0x08000de1   Thumb Code    76  app.o(i.Area_Name_Update)
    AutoAdjustPower_task                     0x08000e35   Thumb Code   298  mainv1.o(i.AutoAdjustPower_task)
    AutoChoiceAudio_task                     0x08000f69   Thumb Code   110  mainv1.o(i.AutoChoiceAudio_task)
    BEEP_task                                0x08000fe5   Thumb Code    84  mainv1.o(i.BEEP_task)
    BKP_DeInit                               0x08001049   Thumb Code    18  stm32f10x_bkp.o(i.BKP_DeInit)
    BKP_ReadBackupRegister                   0x0800105d   Thumb Code     6  stm32f10x_bkp.o(i.BKP_ReadBackupRegister)
    BKP_WriteBackupRegister                  0x08001069   Thumb Code     6  stm32f10x_bkp.o(i.BKP_WriteBackupRegister)
    BusFault_Handler                         0x08001075   Thumb Code     2  stm32f10x_it.o(i.BusFault_Handler)
    COM1_2Init                               0x08001079   Thumb Code   238  mainv1.o(i.COM1_2Init)
    Check_QN8027_tx                          0x08001179   Thumb Code    34  app.o(i.Check_QN8027_tx)
    CollectShowCurrent                       0x080011a1   Thumb Code    32  mainv1.o(i.CollectShowCurrent)
    CollectShowPower                         0x080011c5   Thumb Code    18  mainv1.o(i.CollectShowPower)
    CollectShowRPower                        0x080011dd   Thumb Code    20  mainv1.o(i.CollectShowRPower)
    CollectShowSWR                           0x080011f5   Thumb Code    46  mainv1.o(i.CollectShowSWR)
    CollectShowTempval                       0x0800122d   Thumb Code    32  mainv1.o(i.CollectShowTempval)
    CollectVIN                               0x08001251   Thumb Code    40  mainv1.o(i.CollectVIN)
    ComData_Verify                           0x08001281   Thumb Code    24  app.o(i.ComData_Verify)
    DAC5615Out                               0x08001299   Thumb Code   126  dac5615.o(i.DAC5615Out)
    DAC5615_Init                             0x0800131d   Thumb Code    48  dac5615.o(i.DAC5615_Init)
    DAC5615delay                             0x08001351   Thumb Code     8  dac5615.o(i.DAC5615delay)
    DMA_Cmd                                  0x08001359   Thumb Code    22  stm32f10x_dma.o(i.DMA_Cmd)
    DMA_DeInit                               0x08001371   Thumb Code   228  stm32f10x_dma.o(i.DMA_DeInit)
    DMA_Init                                 0x0800145d   Thumb Code    58  stm32f10x_dma.o(i.DMA_Init)
    DebugMon_Handler                         0x08001497   Thumb Code     2  stm32f10x_it.o(i.DebugMon_Handler)
    Delay_ms                                 0x08001499   Thumb Code    18  mainv1.o(i.Delay_ms)
    Draw_Ascii6X8                            0x080014ad   Thumb Code    90  drawpicture.o(i.Draw_Ascii6X8)
    Draw_Ascii6X8_Downline                   0x0800150d   Thumb Code   100  drawpicture.o(i.Draw_Ascii6X8_Downline)
    Draw_Clear                               0x08001575   Thumb Code    14  drawpicture.o(i.Draw_Clear)
    Draw_Clear_DDRAM                         0x08001585   Thumb Code    38  drawpicture.o(i.Draw_Clear_DDRAM)
    Draw_Fill                                0x080015b1   Thumb Code    42  drawpicture.o(i.Draw_Fill)
    Draw_GetPointColor                       0x080015dd   Thumb Code    30  drawpicture.o(i.Draw_GetPointColor)
    Draw_Line                                0x08001601   Thumb Code   218  drawpicture.o(i.Draw_Line)
    Draw_Lump_fb                             0x080016db   Thumb Code    70  drawpicture.o(i.Draw_Lump_fb)
    Draw_Picture_logoRDS                     0x08001721   Thumb Code    46  drawpicture.o(i.Draw_Picture_logoRDS)
    Draw_Point                               0x08001759   Thumb Code    62  drawpicture.o(i.Draw_Point)
    Draw_Rect                                0x0800179d   Thumb Code    62  drawpicture.o(i.Draw_Rect)
    Draw_String6X8                           0x080017db   Thumb Code    32  drawpicture.o(i.Draw_String6X8)
    Draw_UpdateToLCD                         0x080017fd   Thumb Code    44  drawpicture.o(i.Draw_UpdateToLCD)
    Draw_XLine                               0x0800182d   Thumb Code    44  drawpicture.o(i.Draw_XLine)
    Draw_YLine                               0x08001859   Thumb Code    44  drawpicture.o(i.Draw_YLine)
    Dveid_Int                                0x08001885   Thumb Code    12  app.o(i.Dveid_Int)
    EEPROM_ReadBytes                         0x08001895   Thumb Code   162  24c32.o(i.EEPROM_ReadBytes)
    EEPROM_WriteBytes                        0x08001941   Thumb Code    98  24c32.o(i.EEPROM_WriteBytes)
    EXTI_ClearFlag                           0x080019a9   Thumb Code     6  stm32f10x_exti.o(i.EXTI_ClearFlag)
    EXTI_GetFlagStatus                       0x080019b5   Thumb Code    16  stm32f10x_exti.o(i.EXTI_GetFlagStatus)
    EXTI_Init                                0x080019c9   Thumb Code   128  stm32f10x_exti.o(i.EXTI_Init)
    GPIO_EXTILineConfig                      0x08001a4d   Thumb Code    34  stm32f10x_gpio.o(i.GPIO_EXTILineConfig)
    GPIO_Init                                0x08001a75   Thumb Code   156  stm32f10x_gpio.o(i.GPIO_Init)
    GPIO_ReadInputDataBit                    0x08001b11   Thumb Code    14  stm32f10x_gpio.o(i.GPIO_ReadInputDataBit)
    GPIO_ResetBits                           0x08001b1f   Thumb Code     4  stm32f10x_gpio.o(i.GPIO_ResetBits)
    GPIO_SetBits                             0x08001b23   Thumb Code     4  stm32f10x_gpio.o(i.GPIO_SetBits)
    Get_CollectCurrentVal                    0x08001b29   Thumb Code    22  mainv1.o(i.Get_CollectCurrentVal)
    Get_CollectTempval                       0x08001b45   Thumb Code    56  mainv1.o(i.Get_CollectTempval)
    Get_PowerValue                           0x08001b81   Thumb Code   116  mainv1.o(i.Get_PowerValue)
    Get_RPowerValue                          0x08001c05   Thumb Code   116  mainv1.o(i.Get_RPowerValue)
    HardFault_Handler                        0x08001c89   Thumb Code     2  stm32f10x_it.o(i.HardFault_Handler)
    InitTask                                 0x0800212d   Thumb Code    26  mainv1.o(i.InitTask)
    KEY_DOWN_STATUS                          0x08002161   Thumb Code    30  anjian.o(i.KEY_DOWN_STATUS)
    KEY_DOWN_delayct                         0x08002185   Thumb Code    66  anjian.o(i.KEY_DOWN_delayct)
    KEY_LEFT_STATUS                          0x080021d1   Thumb Code    34  anjian.o(i.KEY_LEFT_STATUS)
    KEY_LEFT_delayct                         0x080021f9   Thumb Code    66  anjian.o(i.KEY_LEFT_delayct)
    KEY_MENU_STATUS                          0x08002245   Thumb Code    22  anjian.o(i.KEY_MENU_STATUS)
    KEY_OK_STATUS                            0x0800225b   Thumb Code    22  anjian.o(i.KEY_OK_STATUS)
    KEY_RDS_STATUS                           0x08002271   Thumb Code    22  anjian.o(i.KEY_RDS_STATUS)
    KEY_RIGHT_STATUS                         0x08002289   Thumb Code    30  anjian.o(i.KEY_RIGHT_STATUS)
    KEY_RIGHT_delayct                        0x080022ad   Thumb Code    66  anjian.o(i.KEY_RIGHT_delayct)
    KEY_Status_AllClear                      0x080022f9   Thumb Code    50  mainv1.o(i.KEY_Status_AllClear)
    KEY_UP_STATUS                            0x0800232d   Thumb Code    30  anjian.o(i.KEY_UP_STATUS)
    KEY_UP_delayct                           0x08002351   Thumb Code    66  anjian.o(i.KEY_UP_delayct)
    KEY_config                               0x0800239d   Thumb Code   268  mainv1.o(i.KEY_config)
    LCD19264_BG_Open                         0x080024b9   Thumb Code    10  lcd19264 driverv20.o(i.LCD19264_BG_Open)
    LCD19264_Clear                           0x080024c9   Thumb Code    34  lcd19264 driverv20.o(i.LCD19264_Clear)
    LCD19264_DisChar                         0x080024ed   Thumb Code    82  lcd19264 driverv20.o(i.LCD19264_DisChar)
    LCD19264_DisOFF                          0x08002545   Thumb Code    54  lcd19264 driverv20.o(i.LCD19264_DisOFF)
    LCD19264_DisON                           0x08002585   Thumb Code    54  lcd19264 driverv20.o(i.LCD19264_DisON)
    LCD19264_Display_String                  0x080025c5   Thumb Code    32  lcd19264 driverv20.o(i.LCD19264_Display_String)
    LCD19264_Init                            0x080025e5   Thumb Code   118  lcd19264 driverv20.o(i.LCD19264_Init)
    LCD19264_Posbyte                         0x08002669   Thumb Code   172  lcd19264 driverv20.o(i.LCD19264_Posbyte)
    LCD19264_StartLine                       0x08002721   Thumb Code    66  lcd19264 driverv20.o(i.LCD19264_StartLine)
    LED_Blinking_task                        0x080027a9   Thumb Code    56  mainv1.o(i.LED_Blinking_task)
    MP3_INPUT_STATUS                         0x080027f1   Thumb Code    26  anjian.o(i.MP3_INPUT_STATUS)
    MemManage_Handler                        0x0800280b   Thumb Code     2  stm32f10x_it.o(i.MemManage_Handler)
    NMI_Handler                              0x0800280d   Thumb Code     2  stm32f10x_it.o(i.NMI_Handler)
    NVIC_Configuration                       0x0800280f   Thumb Code   112  mainv1.o(i.NVIC_Configuration)
    NVIC_Init                                0x0800287f   Thumb Code    92  misc.o(i.NVIC_Init)
    NVIC_PriorityGroupConfig                 0x080028dd   Thumb Code    10  misc.o(i.NVIC_PriorityGroupConfig)
    PCRDS_Blinking_task                      0x080028f1   Thumb Code   234  mainv1.o(i.PCRDS_Blinking_task)
    PCRDS_set                                0x080029fd   Thumb Code   150  app.o(i.PCRDS_set)
    PS_Name_Save                             0x08002a99   Thumb Code    72  app.o(i.PS_Name_Save)
    PS_Name_Update                           0x08002ae9   Thumb Code    72  app.o(i.PS_Name_Update)
    PT2314_Init                              0x08002b39   Thumb Code    72  pt2314.o(i.PT2314_Init)
    PT2314_SetNRegs                          0x08002b91   Thumb Code    62  pt2314.o(i.PT2314_SetNRegs)
    PT2314_SetReg                            0x08002bcf   Thumb Code    42  pt2314.o(i.PT2314_SetReg)
    PT2314_Setup_Bass                        0x08002bf9   Thumb Code    20  pt2314.o(i.PT2314_Setup_Bass)
    PT2314_Setup_CVD                         0x08002c11   Thumb Code    54  pt2314.o(i.PT2314_Setup_CVD)
    PT2314_Setup_Treble                      0x08002c4d   Thumb Code    20  pt2314.o(i.PT2314_Setup_Treble)
    PT2314_Setup_Volume                      0x08002c65   Thumb Code    26  pt2314.o(i.PT2314_Setup_Volume)
    PWR_BackupAccessCmd                      0x08002c85   Thumb Code     6  stm32f10x_pwr.o(i.PWR_BackupAccessCmd)
    Print_ZF_Table                           0x08002c91   Thumb Code    74  mainv1.o(i.Print_ZF_Table)
    QN8027_Delay                             0x08002ce1   Thumb Code    28  qn8027_driver.o(i.QN8027_Delay)
    QN8027_Init                              0x08002cfd   Thumb Code   174  qn8027_driver.o(i.QN8027_Init)
    QN8027_ReadReg                           0x08002db1   Thumb Code    76  qn8027_driver.o(i.QN8027_ReadReg)
    QN8027_WriteReg                          0x08002e01   Thumb Code    60  qn8027_driver.o(i.QN8027_WriteReg)
    QNd8027_SetChannel                       0x08002e41   Thumb Code    36  qn8027_driver.o(i.QNd8027_SetChannel)
    QndMute                                  0x08002e6d   Thumb Code    18  qn8027_driver.o(i.QndMute)
    QndRdsMode                               0x08002e7f   Thumb Code    20  qn8027_driver.o(i.QndRdsMode)
    QndSetReg                                0x08002e95   Thumb Code    38  qn8027_driver.o(i.QndSetReg)
    RCC_AHBPeriphClockCmd                    0x08002ec1   Thumb Code    18  stm32f10x_rcc.o(i.RCC_AHBPeriphClockCmd)
    RCC_APB1PeriphClockCmd                   0x08002ed9   Thumb Code    18  stm32f10x_rcc.o(i.RCC_APB1PeriphClockCmd)
    RCC_APB1PeriphResetCmd                   0x08002ef1   Thumb Code    18  stm32f10x_rcc.o(i.RCC_APB1PeriphResetCmd)
    RCC_APB2PeriphClockCmd                   0x08002f09   Thumb Code    18  stm32f10x_rcc.o(i.RCC_APB2PeriphClockCmd)
    RCC_APB2PeriphResetCmd                   0x08002f21   Thumb Code    18  stm32f10x_rcc.o(i.RCC_APB2PeriphResetCmd)
    RCC_BackupResetCmd                       0x08002f39   Thumb Code     6  stm32f10x_rcc.o(i.RCC_BackupResetCmd)
    RCC_GetClocksFreq                        0x08002f45   Thumb Code   134  stm32f10x_rcc.o(i.RCC_GetClocksFreq)
    RCC_GetFlagStatus                        0x08002fdd   Thumb Code    42  stm32f10x_rcc.o(i.RCC_GetFlagStatus)
    RCC_LSEConfig                            0x0800300d   Thumb Code    26  stm32f10x_rcc.o(i.RCC_LSEConfig)
    RCC_RTCCLKCmd                            0x0800302d   Thumb Code     6  stm32f10x_rcc.o(i.RCC_RTCCLKCmd)
    RCC_RTCCLKConfig                         0x08003039   Thumb Code    10  stm32f10x_rcc.o(i.RCC_RTCCLKConfig)
    RDSData_Verify2                          0x08003049   Thumb Code    20  app.o(i.RDSData_Verify2)
    RDS_DevicesGroup_Mode_Save               0x0800305d   Thumb Code    92  app.o(i.RDS_DevicesGroup_Mode_Save)
    RDS_DevicesGroup_Mode_Update             0x080030c1   Thumb Code    86  app.o(i.RDS_DevicesGroup_Mode_Update)
    RDS_task                                 0x08003121   Thumb Code   104  app.o(i.RDS_task)
    RDSsend_IDNum_task                       0x080031ad   Thumb Code    98  app.o(i.RDSsend_IDNum_task)
    RDSsend_NULL                             0x0800321d   Thumb Code    58  app.o(i.RDSsend_NULL)
    RDSsend_PS                               0x0800325d   Thumb Code   170  app.o(i.RDSsend_PS)
    RDSsend_Volume_task                      0x08003311   Thumb Code    62  app.o(i.RDSsend_Volume_task)
    RDSsend_area_allset                      0x08003359   Thumb Code   162  app.o(i.RDSsend_area_allset)
    RDSsend_pty                              0x08003401   Thumb Code    82  app.o(i.RDSsend_pty)
    RDSsend_state                            0x08003459   Thumb Code   264  app.o(i.RDSsend_state)
    RDSsend_txt                              0x08003571   Thumb Code   156  app.o(i.RDSsend_txt)
    RDSsend_txt_task                         0x08003615   Thumb Code    28  app.o(i.RDSsend_txt_task)
    RTC_ClearITPendingBit                    0x08003639   Thumb Code    12  stm32f10x_rtc.o(i.RTC_ClearITPendingBit)
    RTC_Configuration                        0x08003649   Thumb Code    88  mainv1.o(i.RTC_Configuration)
    RTC_EnterConfigMode                      0x080036a1   Thumb Code    12  stm32f10x_rtc.o(i.RTC_EnterConfigMode)
    RTC_ExitConfigMode                       0x080036b1   Thumb Code    12  stm32f10x_rtc.o(i.RTC_ExitConfigMode)
    RTC_GetCounter                           0x080036c1   Thumb Code    12  stm32f10x_rtc.o(i.RTC_GetCounter)
    RTC_GetITStatus                          0x080036d1   Thumb Code    26  stm32f10x_rtc.o(i.RTC_GetITStatus)
    RTC_IRQHandler                           0x080036f1   Thumb Code   112  stm32f10x_it.o(i.RTC_IRQHandler)
    RTC_ITConfig                             0x08003779   Thumb Code    22  stm32f10x_rtc.o(i.RTC_ITConfig)
    RTC_SetCounter                           0x08003795   Thumb Code    24  stm32f10x_rtc.o(i.RTC_SetCounter)
    RTC_SetPrescaler                         0x080037b1   Thumb Code    26  stm32f10x_rtc.o(i.RTC_SetPrescaler)
    RTC_WaitForLastTask                      0x080037d1   Thumb Code    12  stm32f10x_rtc.o(i.RTC_WaitForLastTask)
    RTC_WaitForSynchro                       0x080037e1   Thumb Code    24  stm32f10x_rtc.o(i.RTC_WaitForSynchro)
    Receive_areastate_int                    0x080037fd   Thumb Code    74  app.o(i.Receive_areastate_int)
    Receiveps_int                            0x08003859   Thumb Code    64  app.o(i.Receiveps_int)
    Receivetxt_int                           0x080038a5   Thumb Code    60  app.o(i.Receivetxt_int)
    SET_Audio_And_Time                       0x080038f1   Thumb Code  1424  mainv1.o(i.SET_Audio_And_Time)
    SET_FM_And_RF_Power                      0x08003e81   Thumb Code   480  mainv1.o(i.SET_FM_And_RF_Power)
    SET_Temp_And_SWR                         0x080040c5   Thumb Code   610  mainv1.o(i.SET_Temp_And_SWR)
    SYS_PARAMETER_Save                       0x08004379   Thumb Code    12  app.o(i.SYS_PARAMETER_Save)
    SYS_PARAMETER_Update                     0x08004389   Thumb Code   158  app.o(i.SYS_PARAMETER_Update)
    SetingWindos_DestroyFMchValue            0x08004535   Thumb Code    20  show.o(i.SetingWindos_DestroyFMchValue)
    SetingWindos_DestroyPowerValue           0x08004549   Thumb Code    20  show.o(i.SetingWindos_DestroyPowerValue)
    SetingWindos_ShowFMchValue               0x0800455d   Thumb Code   132  show.o(i.SetingWindos_ShowFMchValue)
    SetingWindos_ShowPowerValue              0x080045e9   Thumb Code   112  show.o(i.SetingWindos_ShowPowerValue)
    SetupSystemTime                          0x08004659   Thumb Code    42  mainv1.o(i.SetupSystemTime)
    Setup_Area_Name                          0x08004685   Thumb Code   842  mainv1.o(i.Setup_Area_Name)
    Setup_PS_Name                            0x08004a09   Thumb Code   812  mainv1.o(i.Setup_PS_Name)
    Setup_RDSMode                            0x08004d6d   Thumb Code  1100  mainv1.o(i.Setup_RDSMode)
    Setup_RDS_Window                         0x080051b9   Thumb Code   916  mainv1.o(i.Setup_RDS_Window)
    Show_ALLSET_Area_Fullsetval              0x0800558d   Thumb Code    70  mainv1.o(i.Show_ALLSET_Area_Fullsetval)
    Show_ALLSET_Area_Name                    0x080055e5   Thumb Code   136  mainv1.o(i.Show_ALLSET_Area_Name)
    Show_ALLSET_devgb                        0x08005671   Thumb Code    38  mainv1.o(i.Show_ALLSET_devgb)
    Show_Area_Name                           0x08005699   Thumb Code    88  mainv1.o(i.Show_Area_Name)
    Show_DevStatus_Group                     0x080056f5   Thumb Code    90  mainv1.o(i.Show_DevStatus_Group)
    Show_DevStatus_One                       0x08005759   Thumb Code    70  mainv1.o(i.Show_DevStatus_One)
    Show_Device_hangnum                      0x080057b1   Thumb Code    86  mainv1.o(i.Show_Device_hangnum)
    Show_FM                                  0x0800580d   Thumb Code   130  show.o(i.Show_FM)
    Show_FSRF_Logo                           0x080058a5   Thumb Code    20  show.o(i.Show_FSRF_Logo)
    Show_I                                   0x080058bd   Thumb Code    94  show.o(i.Show_I)
    Show_P                                   0x08005925   Thumb Code   120  show.o(i.Show_P)
    Show_PEVal                               0x080059a5   Thumb Code    48  show.o(i.Show_PEVal)
    Show_PS_Name                             0x080059fd   Thumb Code    64  mainv1.o(i.Show_PS_Name)
    Show_Picture                             0x08005a41   Thumb Code    88  show.o(i.Show_Picture)
    Show_RDS                                 0x08005a99   Thumb Code    74  show.o(i.Show_RDS)
    Show_RDS_SetMode                         0x08005af9   Thumb Code    30  mainv1.o(i.Show_RDS_SetMode)
    Show_RDS_logox                           0x08005b3d   Thumb Code    20  show.o(i.Show_RDS_logox)
    Show_RP                                  0x08005b55   Thumb Code    94  show.o(i.Show_RP)
    Show_SWR                                 0x08005bbd   Thumb Code    54  show.o(i.Show_SWR)
    Show_T                                   0x08005bfd   Thumb Code    70  show.o(i.Show_T)
    Show_TX                                  0x08005c51   Thumb Code    50  show.o(i.Show_TX)
    Show_Time                                0x08005c91   Thumb Code   150  show.o(i.Show_Time)
    Show_VOLB                                0x08005d3d   Thumb Code   226  show.o(i.Show_VOLB)
    Show_VOLH                                0x08005e31   Thumb Code   226  show.o(i.Show_VOLH)
    Show_Volume                              0x08005f25   Thumb Code    54  show.o(i.Show_Volume)
    SystemInit                               0x08005f65   Thumb Code    64  system_stm32f10x.o(i.SystemInit)
    TBval_Change                             0x08005fb5   Thumb Code    50  mainv1.o(i.TBval_Change)
    TIM3Init                                 0x08005fe9   Thumb Code    78  mainv1.o(i.TIM3Init)
    TIM3_IRQHandler                          0x0800603d   Thumb Code    68  stm32f10x_it.o(i.TIM3_IRQHandler)
    TIM_ClearITPendingBit                    0x08006095   Thumb Code     6  stm32f10x_tim.o(i.TIM_ClearITPendingBit)
    TIM_Cmd                                  0x0800609b   Thumb Code    20  stm32f10x_tim.o(i.TIM_Cmd)
    TIM_DeInit                               0x080060b1   Thumb Code   304  stm32f10x_tim.o(i.TIM_DeInit)
    TIM_ITConfig                             0x08006221   Thumb Code    16  stm32f10x_tim.o(i.TIM_ITConfig)
    TIM_TimeBaseInit                         0x08006231   Thumb Code   114  stm32f10x_tim.o(i.TIM_TimeBaseInit)
    USART1_IRQHandler                        0x080062cd   Thumb Code   192  stm32f10x_it.o(i.USART1_IRQHandler)
    USART2_IRQHandler                        0x080063b9   Thumb Code   182  stm32f10x_it.o(i.USART2_IRQHandler)
    USART_Cmd                                0x0800649d   Thumb Code    20  stm32f10x_usart.o(i.USART_Cmd)
    USART_GetITStatus                        0x080064b1   Thumb Code    62  stm32f10x_usart.o(i.USART_GetITStatus)
    USART_ITConfig                           0x080064ef   Thumb Code    48  stm32f10x_usart.o(i.USART_ITConfig)
    USART_Init                               0x08006521   Thumb Code   176  stm32f10x_usart.o(i.USART_Init)
    USART_ReceiveData                        0x080065d5   Thumb Code     8  stm32f10x_usart.o(i.USART_ReceiveData)
    USART_SendData                           0x080065dd   Thumb Code     8  stm32f10x_usart.o(i.USART_SendData)
    UpdateSystemTime                         0x080065e5   Thumb Code    52  mainv1.o(i.UpdateSystemTime)
    UsageFault_Handler                       0x0800661d   Thumb Code     2  stm32f10x_it.o(i.UsageFault_Handler)
    __user_perthread_libspace                0x080066b1   Thumb Code    26  rtx_conf_cm.o(i.__user_perthread_libspace)
    _init_box                                0x080066d5   Thumb Code    70  rt_membox.o(i._init_box)
    adc_int                                  0x0800671d   Thumb Code   242  adc.o(i.adc_int)
    answer                                   0x0800681d   Thumb Code    74  app.o(i.answer)
    comdata_task                             0x0800687d   Thumb Code    46  mainv1.o(i.comdata_task)
    dbg_init                                 0x080068c1   Thumb Code    34  hal_cm3.o(i.dbg_init)
    dbg_task_notify                          0x080068f1   Thumb Code    28  hal_cm3.o(i.dbg_task_notify)
    dbg_task_switch                          0x08006911   Thumb Code    12  hal_cm3.o(i.dbg_task_switch)
    filter_I                                 0x08006929   Thumb Code   132  mainv1.o(i.filter_I)
    filter_p                                 0x080069b9   Thumb Code   132  mainv1.o(i.filter_p)
    filter_rp                                0x08006a49   Thumb Code   132  mainv1.o(i.filter_rp)
    filter_swr                               0x08006ad9   Thumb Code   116  mainv1.o(i.filter_swr)
    filter_t                                 0x08006b55   Thumb Code   132  mainv1.o(i.filter_t)
    filter_vin                               0x08006be5   Thumb Code   132  mainv1.o(i.filter_vin)
    main                                     0x08006c75   Thumb Code   112  mainv1.o(i.main)
    main_task                                0x08006ced   Thumb Code  2578  mainv1.o(i.main_task)
    os_error                                 0x08007705   Thumb Code    40  rtx_conf_cm.o(i.os_error)
    os_idle_demon                            0x08007731   Thumb Code     2  rtx_conf_cm.o(i.os_idle_demon)
    os_tmr_call                              0x08007733   Thumb Code     2  rtx_conf_cm.o(i.os_tmr_call)
    protocol                                 0x08007735   Thumb Code   520  app.o(i.protocol)
    ps_int                                   0x0800796d   Thumb Code    48  app.o(i.ps_int)
    rt_alloc_box                             0x080079a9   Thumb Code    28  rt_membox.o(i.rt_alloc_box)
    rt_block                                 0x080079c5   Thumb Code    48  rt_task.o(i.rt_block)
    rt_chk_robin                             0x080079fd   Thumb Code    58  rt_robin.o(i.rt_chk_robin)
    rt_dec_dly                               0x08007a45   Thumb Code   124  rt_list.o(i.rt_dec_dly)
    rt_dispatch                              0x08007ac9   Thumb Code    60  rt_task.o(i.rt_dispatch)
    rt_dly_wait                              0x08007b0d   Thumb Code     6  rt_time.o(i.rt_dly_wait)
    rt_evt_clr                               0x08007b15   Thumb Code    26  rt_event.o(i.rt_evt_clr)
    rt_evt_psh                               0x08007b35   Thumb Code    80  rt_event.o(i.rt_evt_psh)
    rt_evt_set                               0x08007b89   Thumb Code    96  rt_event.o(i.rt_evt_set)
    rt_evt_wait                              0x08007bed   Thumb Code    62  rt_event.o(i.rt_evt_wait)
    rt_free_box                              0x08007c31   Thumb Code    32  rt_membox.o(i.rt_free_box)
    rt_get_first                             0x08007c51   Thumb Code    40  rt_list.o(i.rt_get_first)
    rt_init_robin                            0x08007cbd   Thumb Code    14  rt_robin.o(i.rt_init_robin)
    rt_init_stack                            0x08007cd5   Thumb Code    74  hal_cm3.o(i.rt_init_stack)
    rt_mbx_psh                               0x08007d29   Thumb Code   196  rt_mailbox.o(i.rt_mbx_psh)
    rt_mut_init                              0x08007df1   Thumb Code    16  rt_mutex.o(i.rt_mut_init)
    rt_mut_release                           0x08007e01   Thumb Code   164  rt_mutex.o(i.rt_mut_release)
    rt_mut_wait                              0x08007ead   Thumb Code    98  rt_mutex.o(i.rt_mut_wait)
    rt_pop_req                               0x08007f15   Thumb Code   114  rt_system.o(i.rt_pop_req)
    rt_put_dly                               0x08007f99   Thumb Code    84  rt_list.o(i.rt_put_dly)
    rt_put_prio                              0x08007ff1   Thumb Code    54  rt_list.o(i.rt_put_prio)
    rt_put_rdy_first                         0x08008029   Thumb Code    14  rt_list.o(i.rt_put_rdy_first)
    rt_resort_prio                           0x0800803d   Thumb Code    46  rt_list.o(i.rt_resort_prio)
    rt_rmv_dly                               0x08008071   Thumb Code    44  rt_list.o(i.rt_rmv_dly)
    rt_rmv_list                              0x0800809d   Thumb Code    44  rt_list.o(i.rt_rmv_list)
    rt_sem_psh                               0x080080cd   Thumb Code    46  rt_semaphore.o(i.rt_sem_psh)
    rt_stk_check                             0x08008101   Thumb Code     2  rtx_conf_cm.o(i.rt_stk_check)
    rt_switch_req                            0x08008105   Thumb Code    30  rt_task.o(i.rt_switch_req)
    rt_sys_init                              0x0800812d   Thumb Code   216  rt_task.o(i.rt_sys_init)
    rt_systick                               0x08008255   Thumb Code    48  rt_system.o(i.rt_systick)
    rt_tmr_tick                              0x08008291   Thumb Code    56  rt_timer.o(i.rt_tmr_tick)
    rt_tsk_create                            0x080082d1   Thumb Code   122  rt_task.o(i.rt_tsk_create)
    rt_tsk_delete                            0x08008361   Thumb Code   146  rt_task.o(i.rt_tsk_delete)
    rt_tsk_self                              0x0800840d   Thumb Code    12  rt_task.o(i.rt_tsk_self)
    send_pdata                               0x0800841d   Thumb Code   276  app.o(i.send_pdata)
    toggle                                   0x08008581   Thumb Code    34  app.o(i.toggle)
    turn                                     0x080085a3   Thumb Code    32  app.o(i.turn)
    txt_int                                  0x080085c5   Thumb Code    28  app.o(i.txt_int)
    _get_lc_ctype                            0x080085fd   Thumb Code    44  lc_ctype_c.o(locale$$code)
    __aeabi_d2f                              0x08008629   Thumb Code     0  d2f.o(x$fpl$d2f)
    _d2f                                     0x08008629   Thumb Code    98  d2f.o(x$fpl$d2f)
    __aeabi_ddiv                             0x0800868d   Thumb Code     0  ddiv.o(x$fpl$ddiv)
    _ddiv                                    0x0800868d   Thumb Code   552  ddiv.o(x$fpl$ddiv)
    __aeabi_ui2d                             0x0800893d   Thumb Code     0  dflt_clz.o(x$fpl$dfltu)
    _dfltu                                   0x0800893d   Thumb Code    38  dflt_clz.o(x$fpl$dfltu)
    __fpl_dnaninf                            0x08008963   Thumb Code   156  dnaninf.o(x$fpl$dnaninf)
    __fpl_dretinf                            0x080089ff   Thumb Code    12  dretinf.o(x$fpl$dretinf)
    __aeabi_fadd                             0x08008a0d   Thumb Code     0  faddsub_clz.o(x$fpl$fadd)
    _fadd                                    0x08008a0d   Thumb Code   196  faddsub_clz.o(x$fpl$fadd)
    __fpl_fcheck_NaN1                        0x08008ad1   Thumb Code     6  fcheck1.o(x$fpl$fcheck1)
    __fpl_fcmp_Inf                           0x08008add   Thumb Code    24  fcmpi.o(x$fpl$fcmpinf)
    __aeabi_fdiv                             0x08008af5   Thumb Code     0  fdiv.o(x$fpl$fdiv)
    _fdiv                                    0x08008af5   Thumb Code   384  fdiv.o(x$fpl$fdiv)
    __aeabi_f2uiz                            0x08008c79   Thumb Code     0  ffixu.o(x$fpl$ffixu)
    _ffixu                                   0x08008c79   Thumb Code    62  ffixu.o(x$fpl$ffixu)
    __aeabi_ui2f                             0x08008cb9   Thumb Code     0  fflt_clz.o(x$fpl$ffltu)
    _ffltu                                   0x08008cb9   Thumb Code    38  fflt_clz.o(x$fpl$ffltu)
    __aeabi_cfcmple                          0x08008ce1   Thumb Code     0  fleqf.o(x$fpl$fleqf)
    _fcmple                                  0x08008ce1   Thumb Code   104  fleqf.o(x$fpl$fleqf)
    __fpl_fcmple_InfNaN                      0x08008d33   Thumb Code     0  fleqf.o(x$fpl$fleqf)
    __aeabi_fmul                             0x08008d49   Thumb Code     0  fmul.o(x$fpl$fmul)
    _fmul                                    0x08008d49   Thumb Code   258  fmul.o(x$fpl$fmul)
    __fpl_fnaninf                            0x08008e4b   Thumb Code   140  fnaninf.o(x$fpl$fnaninf)
    _fp_init                                 0x08008ed7   Thumb Code    14  fpinit.o(x$fpl$fpinit)
    __fplib_config_pureend_doubles           0x08008ee3   Thumb Code     0  fpinit.o(x$fpl$fpinit)
    __fpl_fretinf                            0x08008ee5   Thumb Code    10  fretinf.o(x$fpl$fretinf)
    __aeabi_cfrcmple                         0x08008eef   Thumb Code     0  frleqf.o(x$fpl$frleqf)
    _frcmple                                 0x08008eef   Thumb Code    98  frleqf.o(x$fpl$frleqf)
    __aeabi_fsub                             0x08008f51   Thumb Code     0  faddsub_clz.o(x$fpl$fsub)
    _fsub                                    0x08008f51   Thumb Code   234  faddsub_clz.o(x$fpl$fsub)
    __fpl_return_NaN                         0x0800903b   Thumb Code   100  retnan.o(x$fpl$retnan)
    __ARM_scalbnf                            0x0800909f   Thumb Code    80  scalbnf.o(x$fpl$scalbnf)
    __fpl_inf_scalbnf                        0x080090ed   Thumb Code     0  scalbnf.o(x$fpl$scalbnf)
    __fpl_cmpreturn                          0x080090ef   Thumb Code    48  trapv.o(x$fpl$trapveneer)
    __I$use$fp                               0x0800911f   Thumb Code     0  usenofp.o(x$fpl$usenofp)
    os_maxtaskrun                            0x0800911e   Data           2  rtx_conf_cm.o(.constdata)
    os_stackinfo                             0x08009120   Data           4  rtx_conf_cm.o(.constdata)
    os_rrobin                                0x08009124   Data           4  rtx_conf_cm.o(.constdata)
    os_trv                                   0x08009128   Data           4  rtx_conf_cm.o(.constdata)
    os_flags                                 0x0800912c   Data           1  rtx_conf_cm.o(.constdata)
    os_clockrate                             0x08009130   Data           4  rtx_conf_cm.o(.constdata)
    os_timernum                              0x08009134   Data           4  rtx_conf_cm.o(.constdata)
    mp_tcb_size                              0x08009138   Data           2  rtx_conf_cm.o(.constdata)
    mp_stk_size                              0x0800913c   Data           4  rtx_conf_cm.o(.constdata)
    os_fifo_size                             0x08009140   Data           1  rtx_conf_cm.o(.constdata)
    mp_tmr_size                              0x08009142   Data           2  rtx_conf_cm.o(.constdata)
    jiaozheng                                0x08009144   Data          16  mainv1.o(.constdata)
    ZF_Table                                 0x08009154   Data          88  mainv1.o(.constdata)
    EZK                                      0x080091ac   Data        1520  lcd19264 driverv20.o(.constdata)
    FONT6x8                                  0x0800979c   Data         552  lcd19264 driverv20.o(.constdata)
    logo_RDS                                 0x080099c4   Data         768  drawpicture.o(.constdata)
    FH_du8X8                                 0x08009cc4   Data           8  show.o(.constdata)
    FH_duigou8X8                             0x08009ccc   Data           8  show.o(.constdata)
    FH_chacha8X8                             0x08009cd4   Data           8  show.o(.constdata)
    RDS_logo_x                               0x08009cdc   Data         152  show.o(.constdata)
    FSRF_Logo                                0x08009d74   Data         192  show.o(.constdata)
    FH_PC8X8                                 0x08009e34   Data           8  show.o(.constdata)
    FH_RD8X8                                 0x08009e3c   Data           8  show.o(.constdata)
    B_SPK8X8                                 0x08009e44   Data           8  show.o(.constdata)
    M_SPK8X8                                 0x08009e4c   Data           8  show.o(.constdata)
    S_SPK8X8                                 0x08009e54   Data           8  show.o(.constdata)
    X_SPK8X8                                 0x08009e5c   Data           8  show.o(.constdata)
    SW_8X8                                   0x08009e64   Data           8  show.o(.constdata)
    B_SPK                                    0x08009e6c   Data          11  show.o(.constdata)
    M_SPK                                    0x08009e77   Data          11  show.o(.constdata)
    S_SPK                                    0x08009e82   Data          11  show.o(.constdata)
    X_SPK                                    0x08009e8d   Data          11  show.o(.constdata)
    Alarm_Pic16X16                           0x08009e98   Data          26  show.o(.constdata)
    Region$$Table$$Base                      0x08009eb4   Number         0  anon$$obj.o(Region$$Table)
    Region$$Table$$Limit                     0x08009ed4   Number         0  anon$$obj.o(Region$$Table)
    __ctype                                  0x08009ee1   Data           0  lc_ctype_c.o(locale$$data)
    m_tmr                                    0x20000014   Data           4  rtx_conf_cm.o(.data)
    packet_R_OK                              0x20000018   Data           1  mainv1.o(.data)
    Volume_value                             0x20000019   Data           1  mainv1.o(.data)
    Bass_value                               0x2000001a   Data           1  mainv1.o(.data)
    Treble_value                             0x2000001b   Data           1  mainv1.o(.data)
    PE_value                                 0x2000001c   Data           1  mainv1.o(.data)
    TP_set                                   0x2000001d   Data           1  mainv1.o(.data)
    SWRP_set                                 0x2000001e   Data           1  mainv1.o(.data)
    SWR_value                                0x2000001f   Data           1  mainv1.o(.data)
    T_value                                  0x20000020   Data           1  mainv1.o(.data)
    TX_status                                0x20000021   Data           1  mainv1.o(.data)
    setsys_para                              0x20000022   Data           1  mainv1.o(.data)
    menu_set                                 0x20000023   Data           1  mainv1.o(.data)
    VIN_AND_EN                               0x20000024   Data           1  mainv1.o(.data)
    fm_rf_set                                0x20000025   Data           1  mainv1.o(.data)
    tp_adjust_p                              0x20000026   Data           1  mainv1.o(.data)
    pty_num                                  0x20000027   Data           1  mainv1.o(.data)
    area_num                                 0x20000028   Data           1  mainv1.o(.data)
    rds_state                                0x20000029   Data           1  mainv1.o(.data)
    PCRDS_Blinking_flag                      0x2000002a   Data           1  mainv1.o(.data)
    Txbyte                                   0x20000031   Data           1  mainv1.o(.data)
    S2_receive_flag                          0x20000032   Data           1  mainv1.o(.data)
    SystemTime_SecUpdate_Flag                0x20000033   Data           1  mainv1.o(.data)
    PTT_status                               0x20000034   Data           1  mainv1.o(.data)
    HighTempWarning_Flag                     0x20000035   Data           1  mainv1.o(.data)
    HighCURRENTWarning_Flag                  0x20000036   Data           1  mainv1.o(.data)
    HighSWRWarning_Flag                      0x20000037   Data           1  mainv1.o(.data)
    HighPRWarning_Flag                       0x20000038   Data           1  mainv1.o(.data)
    HighLPWarning_Flag                       0x20000039   Data           1  mainv1.o(.data)
    VinWarning_Flag                          0x2000003a   Data           1  mainv1.o(.data)
    dav_save                                 0x2000003c   Data           2  mainv1.o(.data)
    Power_set                                0x2000003e   Data           2  mainv1.o(.data)
    Power_value                              0x20000040   Data           2  mainv1.o(.data)
    RP_value                                 0x20000042   Data           2  mainv1.o(.data)
    I_value                                  0x20000044   Data           2  mainv1.o(.data)
    Excitation_V                             0x20000046   Data           2  mainv1.o(.data)
    powerval_bak                             0x20000048   Data           2  mainv1.o(.data)
    CursorBlink_Count                        0x2000004a   Data           2  mainv1.o(.data)
    CollectUpdate_Interval                   0x2000004c   Data           2  mainv1.o(.data)
    SystemTime                               0x2000004e   Data           3  mainv1.o(.data)
    Rxbuf                                    0x20000051   Data           3  mainv1.o(.data)
    Vp_mv                                    0x20000054   Data           4  mainv1.o(.data)
    Vn_mv                                    0x20000058   Data           4  mainv1.o(.data)
    FM_value                                 0x2000005c   Data           4  mainv1.o(.data)
    fmval_bak                                0x20000060   Data           4  mainv1.o(.data)
    tid_main_task                            0x20000064   Data           4  mainv1.o(.data)
    tid_alarm_task                           0x20000068   Data           4  mainv1.o(.data)
    tid_AutoAdjustPower                      0x2000006c   Data           4  mainv1.o(.data)
    tid_AutoChoiceAudio                      0x20000070   Data           4  mainv1.o(.data)
    tid_PCRDS_task                           0x20000074   Data           4  mainv1.o(.data)
    tid_comdata_task                         0x20000078   Data           4  mainv1.o(.data)
    Menu_Timeout_Count                       0x2000007c   Data           4  mainv1.o(.data)
    PS_Name                                  0x20000080   Data          80  mainv1.o(.data)
    Area_Name                                0x200000d0   Data         140  mainv1.o(.data)
    packet_head                              0x2000015c   Data           1  mainv1.o(.data)
    packet_head2                             0x2000015d   Data           1  mainv1.o(.data)
    packet_R_OK2                             0x2000015e   Data           1  mainv1.o(.data)
    packet_T_OK                              0x2000015f   Data           1  mainv1.o(.data)
    packet_T_OK2                             0x20000160   Data           1  mainv1.o(.data)
    Disconnect_pc                            0x20000162   Data           2  mainv1.o(.data)
    packet_rct                               0x20000164   Data           1  mainv1.o(.data)
    packet_rct2                              0x20000165   Data           1  mainv1.o(.data)
    packet_len                               0x20000166   Data           1  mainv1.o(.data)
    packet_len2                              0x20000167   Data           1  mainv1.o(.data)
    packet_xor                               0x20000168   Data           1  mainv1.o(.data)
    packet_xor2                              0x20000169   Data           1  mainv1.o(.data)
    packet_sendsize                          0x2000016a   Data           1  mainv1.o(.data)
    packet_tct                               0x2000016b   Data           1  mainv1.o(.data)
    packet_sendsize2                         0x2000016c   Data           1  mainv1.o(.data)
    packet_tct2                              0x2000016d   Data           1  mainv1.o(.data)
    packet_tbuf2                             0x2000016e   Data           2  mainv1.o(.data)
    sendstate_Time_Count                     0x20000170   Data           4  mainv1.o(.data)
    pt2314_error_flag                        0x20000174   Data           1  pt2314.o(.data)
    QN8027_error_flag                        0x20000175   Data           1  qn8027_driver.o(.data)
    TempRegData2                             0x20000176   Data           1  qn8027_driver.o(.data)
    TempChannel                              0x20000177   Data           1  qn8027_driver.o(.data)
    UP_LockFlag                              0x20000178   Data           1  anjian.o(.data)
    UP_DelayEnd                              0x20000179   Data           1  anjian.o(.data)
    DOWN_DelayEnd                            0x2000017a   Data           1  anjian.o(.data)
    DOWN_LockFlag                            0x2000017b   Data           1  anjian.o(.data)
    LEFT_LockFlag                            0x2000017c   Data           1  anjian.o(.data)
    LEFT_DelayEnd                            0x2000017d   Data           1  anjian.o(.data)
    RIGHT_DelayEnd                           0x2000017e   Data           1  anjian.o(.data)
    RIGHT_LockFlag                           0x2000017f   Data           1  anjian.o(.data)
    UP_StartDelayct                          0x20000180   Data           2  anjian.o(.data)
    UP_Delayct                               0x20000182   Data           2  anjian.o(.data)
    DOWN_StartDelayct                        0x20000184   Data           2  anjian.o(.data)
    DOWN_Delayct                             0x20000186   Data           2  anjian.o(.data)
    LEFT_StartDelayct                        0x20000188   Data           2  anjian.o(.data)
    LEFT_Delayct                             0x2000018a   Data           2  anjian.o(.data)
    RIGHT_StartDelayct                       0x2000018c   Data           2  anjian.o(.data)
    RIGHT_Delayct                            0x2000018e   Data           2  anjian.o(.data)
    eeprom_error_flag                        0x20000190   Data           1  24c32.o(.data)
    Volume_set                               0x20000194   Data           1  app.o(.data)
    Send_receive                             0x20000195   Data           1  app.o(.data)
    send_count                               0x20000196   Data           1  app.o(.data)
    area_group_terminal_set_flag             0x20000197   Data           1  app.o(.data)
    pc_area_group_terminal_set_flag          0x20000198   Data           1  app.o(.data)
    area_allset_flag                         0x20000199   Data           1  app.o(.data)
    transfer_flag                            0x2000019a   Data           1  app.o(.data)
    sendwb_en                                0x2000019b   Data           1  app.o(.data)
    pc_gbset                                 0x2000019c   Data           1  app.o(.data)
    count_state                              0x2000019d   Data           1  app.o(.data)
    length                                   0x200001a2   Data           1  app.o(.data)
    package_length                           0x200001a3   Data           1  app.o(.data)
    package_tmp                              0x200001a4   Data           1  app.o(.data)
    pc_area_num                              0x200001a5   Data           1  app.o(.data)
    pc_Group_num                             0x200001a6   Data           1  app.o(.data)
    pc_Group_setval                          0x200001a7   Data           1  app.o(.data)
    pc_terminal_num                          0x200001a8   Data           1  app.o(.data)
    pc_terminal_setval                       0x200001a9   Data           1  app.o(.data)
    mybool                                   0x200001aa   Data           1  app.o(.data)
    convert                                  0x200001ac   Data           2  app.o(.data)
    Dveid                                    0x200001ae   Data           3  app.o(.data)
    NEW_Dveid                                0x200001b1   Data           3  app.o(.data)
    pPTY                                     0x200001b4   Data           4  app.o(.data)
    ptystr                                   0x200001b8   Data           4  app.o(.data)
    str                                      0x200001bc   Data           4  app.o(.data)
    FM_val2                                  0x200001c0   Data           4  app.o(.data)
    tid_RDSsend_txt_task                     0x200001c4   Data           4  app.o(.data)
    tid_RDSsend_IDNum_task                   0x200001c8   Data           4  app.o(.data)
    tid_RDSsend_Volume_task                  0x200001cc   Data           4  app.o(.data)
    gb_area_num                              0x200001d0   Data           4  app.o(.data)
    gb_area_setval                           0x200001d4   Data           4  app.o(.data)
    gb_Group_num                             0x200001d8   Data           4  app.o(.data)
    gb_Group_setval                          0x200001dc   Data           4  app.o(.data)
    gb_terminal_num                          0x200001e0   Data           4  app.o(.data)
    gb_terminal_setval                       0x200001e4   Data           4  app.o(.data)
    psys_data                                0x200001e8   Data           4  app.o(.data)
    tmpbuff                                  0x200001ec   Data           4  app.o(.data)
    strbuf2                                  0x200001f0   Data           8  app.o(.data)
    Reg0_save                                0x200001f8   Data           1  app.o(.data)
    os_tsk                                   0x200001fc   Data           8  rt_task.o(.data)
    os_time                                  0x20000204   Data           2  rt_time.o(.data)
    dbg_msg                                  0x20000206   Data           1  hal_cm3.o(.data)
    os_robin                                 0x2000020c   Data           8  rt_robin.o(.data)
    os_tmr                                   0x20000214   Data           8  rt_timer.o(.data)
    mp_tcb                                   0x2000021c   Data         588  rtx_conf_cm.o(.bss)
    mp_stk                                   0x20000468   Data       13016  rtx_conf_cm.o(.bss)
    os_fifo                                  0x20003740   Data         260  rtx_conf_cm.o(.bss)
    os_active_TCB                            0x20003844   Data          48  rtx_conf_cm.o(.bss)
    LCD_mutex                                0x20004078   Data          12  mainv1.o(.bss)
    USART1_InitStructure                     0x20004084   Data          16  mainv1.o(.bss)
    packet_rbuf                              0x20004094   Data          64  mainv1.o(.bss)
    USART2_InitStructure                     0x200040d4   Data          16  mainv1.o(.bss)
    RDS_DevicesGroup_Mode                    0x200040e4   Data         384  mainv1.o(.bss)
    ADValue_T                                0x20004264   Data          60  mainv1.o(.bss)
    ADValue_P                                0x200042a0   Data          60  mainv1.o(.bss)
    ADValue_RP                               0x200042dc   Data          60  mainv1.o(.bss)
    ADValue_I                                0x20004318   Data          60  mainv1.o(.bss)
    ADValue_vin                              0x20004354   Data          60  mainv1.o(.bss)
    ADValue_swr                              0x20004390   Data          30  mainv1.o(.bss)
    packet_rbuf2                             0x200043ae   Data          32  mainv1.o(.bss)
    packet_tbuf                              0x200043ce   Data          32  mainv1.o(.bss)
    DDRAM                                    0x200043ee   Data        1536  drawpicture.o(.bss)
    PTY                                      0x200049f0   Data          36  app.o(.bss)
    QN8027_mutex                             0x20004a14   Data          12  app.o(.bss)
    strbuf3                                  0x20004a20   Data          32  app.o(.bss)
    strbuf5                                  0x20004a40   Data          32  app.o(.bss)
    UNION_DATA                               0x20004bd8   Data          16  app.o(.bss)
    ADC_InitStructure                        0x20004be8   Data          20  adc.o(.bss)
    DMA_InitStructure                        0x20004bfc   Data          44  adc.o(.bss)
    ADCConvertedValue                        0x20004c28   Data          10  adc.o(.bss)
    os_idle_TCB                              0x20004c34   Data          48  rt_task.o(.bss)
    os_rdy                                   0x20004c64   Data          24  rt_list.o(.bss)
    os_dly                                   0x20004c7c   Data          24  rt_list.o(.bss)
    __libspace_start                         0x20004c94   Data          96  libspace.o(.bss)
    __temporary_stack_top$libspace           0x20004cf4   Data           0  libspace.o(.bss)



==============================================================================

Memory Map of the image

  Image Entry point : 0x080000ed

  Load Region LR_IROM1 (Base: 0x08000000, Size: 0x0000a200, Max: 0x00080000, ABSOLUTE, COMPRESSED[0x0000a030])

    Execution Region ER_IROM1 (Base: 0x08000000, Size: 0x00009fe4, Max: 0x00080000, ABSOLUTE)

    Base Addr    Size         Type   Attr      Idx    E Section Name        Object

    0x08000000   0x000000ec   Data   RO            3    RESET               startup_stm32f10x_md.o
    0x080000ec   0x00000008   Code   RO         4044  * !!!main             c_w.l(__main.o)
    0x080000f4   0x00000034   Code   RO         4288    !!!scatter          c_w.l(__scatter.o)
    0x08000128   0x0000005a   Code   RO         4286    !!dczerorl2         c_w.l(__dczerorl2.o)
    0x08000182   0x00000002   PAD
    0x08000184   0x0000001c   Code   RO         4290    !!handler_zi        c_w.l(__scatter_zi.o)
    0x080001a0   0x00000006   Code   RO         4143    .ARM.Collect$$libinit$$00000000  c_w.l(libinit.o)
    0x080001a6   0x00000000   Code   RO         4160    .ARM.Collect$$libinit$$00000006  c_w.l(libinit2.o)
    0x080001a6   0x00000000   Code   RO         4162    .ARM.Collect$$libinit$$00000008  c_w.l(libinit2.o)
    0x080001a6   0x00000000   Code   RO         4164    .ARM.Collect$$libinit$$0000000A  c_w.l(libinit2.o)
    0x080001a6   0x00000006   Code   RO         4165    .ARM.Collect$$libinit$$0000000B  c_w.l(libinit2.o)
    0x080001ac   0x00000000   Code   RO         4167    .ARM.Collect$$libinit$$0000000D  c_w.l(libinit2.o)
    0x080001ac   0x0000000c   Code   RO         4168    .ARM.Collect$$libinit$$0000000E  c_w.l(libinit2.o)
    0x080001b8   0x00000000   Code   RO         4169    .ARM.Collect$$libinit$$0000000F  c_w.l(libinit2.o)
    0x080001b8   0x00000000   Code   RO         4171    .ARM.Collect$$libinit$$00000011  c_w.l(libinit2.o)
    0x080001b8   0x00000000   Code   RO         4173    .ARM.Collect$$libinit$$00000013  c_w.l(libinit2.o)
    0x080001b8   0x00000000   Code   RO         4175    .ARM.Collect$$libinit$$00000015  c_w.l(libinit2.o)
    0x080001b8   0x00000000   Code   RO         4177    .ARM.Collect$$libinit$$00000017  c_w.l(libinit2.o)
    0x080001b8   0x00000000   Code   RO         4179    .ARM.Collect$$libinit$$00000019  c_w.l(libinit2.o)
    0x080001b8   0x00000000   Code   RO         4181    .ARM.Collect$$libinit$$0000001B  c_w.l(libinit2.o)
    0x080001b8   0x00000000   Code   RO         4183    .ARM.Collect$$libinit$$0000001D  c_w.l(libinit2.o)
    0x080001b8   0x00000000   Code   RO         4185    .ARM.Collect$$libinit$$0000001F  c_w.l(libinit2.o)
    0x080001b8   0x00000000   Code   RO         4187    .ARM.Collect$$libinit$$00000021  c_w.l(libinit2.o)
    0x080001b8   0x00000000   Code   RO         4191    .ARM.Collect$$libinit$$00000028  c_w.l(libinit2.o)
    0x080001b8   0x00000000   Code   RO         4193    .ARM.Collect$$libinit$$0000002A  c_w.l(libinit2.o)
    0x080001b8   0x00000000   Code   RO         4195    .ARM.Collect$$libinit$$0000002C  c_w.l(libinit2.o)
    0x080001b8   0x00000000   Code   RO         4197    .ARM.Collect$$libinit$$0000002E  c_w.l(libinit2.o)
    0x080001b8   0x00000002   Code   RO         4198    .ARM.Collect$$libinit$$0000002F  c_w.l(libinit2.o)
    0x080001ba   0x00000002   Code   RO         4228    .ARM.Collect$$libshutdown$$00000000  c_w.l(libshutdown.o)
    0x080001bc   0x00000000   Code   RO         4241    .ARM.Collect$$libshutdown$$00000003  c_w.l(libshutdown2.o)
    0x080001bc   0x00000000   Code   RO         4244    .ARM.Collect$$libshutdown$$00000006  c_w.l(libshutdown2.o)
    0x080001bc   0x00000000   Code   RO         4247    .ARM.Collect$$libshutdown$$00000009  c_w.l(libshutdown2.o)
    0x080001bc   0x00000000   Code   RO         4249    .ARM.Collect$$libshutdown$$0000000B  c_w.l(libshutdown2.o)
    0x080001bc   0x00000000   Code   RO         4252    .ARM.Collect$$libshutdown$$0000000E  c_w.l(libshutdown2.o)
    0x080001bc   0x00000002   Code   RO         4253    .ARM.Collect$$libshutdown$$0000000F  c_w.l(libshutdown2.o)
    0x080001be   0x00000000   Code   RO         4084    .ARM.Collect$$rtentry$$00000000  c_w.l(rtentry.o)
    0x080001be   0x00000000   Code   RO         4106    .ARM.Collect$$rtentry$$00000002  c_w.l(rtentry2.o)
    0x080001be   0x00000006   Code   RO         4121    .ARM.Collect$$rtentry$$00000004  c_w.l(rtentry4.o)
    0x080001c4   0x00000000   Code   RO         4108    .ARM.Collect$$rtentry$$00000009  c_w.l(rtentry2.o)
    0x080001c4   0x00000004   Code   RO         4109    .ARM.Collect$$rtentry$$0000000A  c_w.l(rtentry2.o)
    0x080001c8   0x00000000   Code   RO         4111    .ARM.Collect$$rtentry$$0000000C  c_w.l(rtentry2.o)
    0x080001c8   0x00000008   Code   RO         4112    .ARM.Collect$$rtentry$$0000000D  c_w.l(rtentry2.o)
    0x080001d0   0x00000002   Code   RO         4146    .ARM.Collect$$rtexit$$00000000  c_w.l(rtexit.o)
    0x080001d2   0x00000000   Code   RO         4202    .ARM.Collect$$rtexit$$00000002  c_w.l(rtexit2.o)
    0x080001d2   0x00000004   Code   RO         4203    .ARM.Collect$$rtexit$$00000003  c_w.l(rtexit2.o)
    0x080001d6   0x00000006   Code   RO         4204    .ARM.Collect$$rtexit$$00000004  c_w.l(rtexit2.o)
    0x080001dc   0x0000014c   Code   RO         3688    .emb_text           RTX_CM3.LIB(hal_cm3.o)
    0x08000328   0x00000040   Code   RO            4    .text               startup_stm32f10x_md.o
    0x08000368   0x00000008   Code   RO         4027    .text               c_w.l(libspace.o)
    0x08000370   0x0000003c   Code   RO         4030    .text               c_w.l(__0sscanf.o)
    0x080003ac   0x000000de   Code   RO         4032    .text               c_w.l(_scanf_str.o)
    0x0800048a   0x0000008a   Code   RO         4034    .text               c_w.l(rt_memcpy_v6.o)
    0x08000514   0x00000010   Code   RO         4036    .text               c_w.l(aeabi_memset.o)
    0x08000524   0x00000044   Code   RO         4038    .text               c_w.l(rt_memclr.o)
    0x08000568   0x0000004e   Code   RO         4040    .text               c_w.l(rt_memclr_w.o)
    0x080005b6   0x00000006   Code   RO         4042    .text               c_w.l(heapauxi.o)
    0x080005bc   0x00000030   Code   RO         4086    .text               c_w.l(scanf_char.o)
    0x080005ec   0x00000040   Code   RO         4088    .text               c_w.l(_sgetc.o)
    0x0800062c   0x00000064   Code   RO         4090    .text               c_w.l(rt_memcpy_w.o)
    0x08000690   0x00000012   Code   RO         4123    .text               c_w.l(isspace.o)
    0x080006a2   0x00000002   PAD
    0x080006a4   0x00000388   Code   RO         4125    .text               c_w.l(_scanf.o)
    0x08000a2c   0x0000004a   Code   RO         4131    .text               c_w.l(sys_stackheap_outer.o)
    0x08000a76   0x00000002   PAD
    0x08000a78   0x00000010   Code   RO         4133    .text               c_w.l(rt_ctype_table.o)
    0x08000a88   0x0000000c   Code   RO         4135    .text               c_w.l(exit.o)
    0x08000a94   0x0000000a   Code   RO         4153    .text               c_w.l(rt_locale_twolibspace.o)
    0x08000a9e   0x0000000a   Code   RO         4214    .text               c_w.l(rt_fp_status_addr_twolibspace.o)
    0x08000aa8   0x00000080   Code   RO         4216    .text               c_w.l(strcmpv7m.o)
    0x08000b28   0x0000000c   Code   RO         4220    .text               c_w.l(sys_exit.o)
    0x08000b34   0x00000002   Code   RO         4231    .text               c_w.l(use_no_semi.o)
    0x08000b36   0x00000002   PAD
    0x08000b38   0x00000004   Code   RO         3911    SVC_TABLE           RTX_CM3.LIB(SVC_Table.o)
    0x08000b3c   0x00000014   Code   RO         1501    i.ADC_Cmd           stm32f10x_adc.o
    0x08000b50   0x00000014   Code   RO         1502    i.ADC_DMACmd        stm32f10x_adc.o
    0x08000b64   0x0000001c   Code   RO         3466    i.ADC_GPIO_Configuration  adc.o
    0x08000b80   0x0000000e   Code   RO         1509    i.ADC_GetCalibrationStatus  stm32f10x_adc.o
    0x08000b8e   0x0000000e   Code   RO         1515    i.ADC_GetResetCalibrationStatus  stm32f10x_adc.o
    0x08000b9c   0x00000048   Code   RO         1519    i.ADC_Init          stm32f10x_adc.o
    0x08000be4   0x00000074   Code   RO         1523    i.ADC_RegularChannelConfig  stm32f10x_adc.o
    0x08000c58   0x0000000a   Code   RO         1524    i.ADC_ResetCalibration  stm32f10x_adc.o
    0x08000c62   0x00000014   Code   RO         1526    i.ADC_SoftwareStartConvCmd  stm32f10x_adc.o
    0x08000c76   0x0000000a   Code   RO         1528    i.ADC_StartCalibration  stm32f10x_adc.o
    0x08000c80   0x0000001a   Code   RO         3035    i.AUX_INPUT_STATUS  anjian.o
    0x08000c9a   0x00000002   PAD
    0x08000c9c   0x00000090   Code   RO         1875    i.Alarm_task        mainv1.o
    0x08000d2c   0x00000060   Code   RO         3223    i.Answer_handshake  app.o
    0x08000d8c   0x00000054   Code   RO         3224    i.Area_Name_Save    app.o
    0x08000de0   0x00000054   Code   RO         3225    i.Area_Name_Update  app.o
    0x08000e34   0x00000134   Code   RO         1876    i.AutoAdjustPower_task  mainv1.o
    0x08000f68   0x0000007c   Code   RO         1877    i.AutoChoiceAudio_task  mainv1.o
    0x08000fe4   0x00000064   Code   RO         1879    i.BEEP_task         mainv1.o
    0x08001048   0x00000012   Code   RO         1419    i.BKP_DeInit        stm32f10x_bkp.o
    0x0800105a   0x00000002   PAD
    0x0800105c   0x0000000c   Code   RO         1424    i.BKP_ReadBackupRegister  stm32f10x_bkp.o
    0x08001068   0x0000000c   Code   RO         1428    i.BKP_WriteBackupRegister  stm32f10x_bkp.o
    0x08001074   0x00000002   Code   RO         2794    i.BusFault_Handler  stm32f10x_it.o
    0x08001076   0x00000002   PAD
    0x08001078   0x00000100   Code   RO         1880    i.COM1_2Init        mainv1.o
    0x08001178   0x00000028   Code   RO         3226    i.Check_QN8027_tx   app.o
    0x080011a0   0x00000024   Code   RO         1881    i.CollectShowCurrent  mainv1.o
    0x080011c4   0x00000018   Code   RO         1882    i.CollectShowPower  mainv1.o
    0x080011dc   0x00000018   Code   RO         1883    i.CollectShowRPower  mainv1.o
    0x080011f4   0x00000038   Code   RO         1884    i.CollectShowSWR    mainv1.o
    0x0800122c   0x00000024   Code   RO         1885    i.CollectShowTempval  mainv1.o
    0x08001250   0x00000030   Code   RO         1886    i.CollectVIN        mainv1.o
    0x08001280   0x00000018   Code   RO         3227    i.ComData_Verify    app.o
    0x08001298   0x00000084   Code   RO         3131    i.DAC5615Out        dac5615.o
    0x0800131c   0x00000034   Code   RO         3132    i.DAC5615_Init      dac5615.o
    0x08001350   0x00000008   Code   RO         3133    i.DAC5615delay      dac5615.o
    0x08001358   0x00000016   Code   RO         1722    i.DMA_Cmd           stm32f10x_dma.o
    0x0800136e   0x00000002   PAD
    0x08001370   0x000000ec   Code   RO         1723    i.DMA_DeInit        stm32f10x_dma.o
    0x0800145c   0x0000003a   Code   RO         1728    i.DMA_Init          stm32f10x_dma.o
    0x08001496   0x00000002   Code   RO         2795    i.DebugMon_Handler  stm32f10x_it.o
    0x08001498   0x00000012   Code   RO         1889    i.Delay_ms          mainv1.o
    0x080014aa   0x00000002   PAD
    0x080014ac   0x00000060   Code   RO         2484    i.Draw_Ascii6X8     drawpicture.o
    0x0800150c   0x00000068   Code   RO         2485    i.Draw_Ascii6X8_Downline  drawpicture.o
    0x08001574   0x0000000e   Code   RO         2487    i.Draw_Clear        drawpicture.o
    0x08001582   0x00000002   PAD
    0x08001584   0x0000002c   Code   RO         2488    i.Draw_Clear_DDRAM  drawpicture.o
    0x080015b0   0x0000002a   Code   RO         2489    i.Draw_Fill         drawpicture.o
    0x080015da   0x00000002   PAD
    0x080015dc   0x00000024   Code   RO         2490    i.Draw_GetPointColor  drawpicture.o
    0x08001600   0x000000da   Code   RO         2491    i.Draw_Line         drawpicture.o
    0x080016da   0x00000046   Code   RO         2492    i.Draw_Lump_fb      drawpicture.o
    0x08001720   0x00000038   Code   RO         2493    i.Draw_Picture_logoRDS  drawpicture.o
    0x08001758   0x00000044   Code   RO         2494    i.Draw_Point        drawpicture.o
    0x0800179c   0x0000003e   Code   RO         2496    i.Draw_Rect         drawpicture.o
    0x080017da   0x00000020   Code   RO         2497    i.Draw_String6X8    drawpicture.o
    0x080017fa   0x00000002   PAD
    0x080017fc   0x00000030   Code   RO         2498    i.Draw_UpdateToLCD  drawpicture.o
    0x0800182c   0x0000002c   Code   RO         2499    i.Draw_XLine        drawpicture.o
    0x08001858   0x0000002c   Code   RO         2500    i.Draw_YLine        drawpicture.o
    0x08001884   0x00000010   Code   RO         3228    i.Dveid_Int         app.o
    0x08001894   0x000000ac   Code   RO         3156    i.EEPROM_ReadBytes  24c32.o
    0x08001940   0x00000068   Code   RO         3158    i.EEPROM_WriteBytes  24c32.o
    0x080019a8   0x0000000c   Code   RO         1211    i.EXTI_ClearFlag    stm32f10x_exti.o
    0x080019b4   0x00000014   Code   RO         1215    i.EXTI_GetFlagStatus  stm32f10x_exti.o
    0x080019c8   0x00000084   Code   RO         1217    i.EXTI_Init         stm32f10x_exti.o
    0x08001a4c   0x00000028   Code   RO          172    i.GPIO_EXTILineConfig  stm32f10x_gpio.o
    0x08001a74   0x0000009c   Code   RO          175    i.GPIO_Init         stm32f10x_gpio.o
    0x08001b10   0x0000000e   Code   RO          179    i.GPIO_ReadInputDataBit  stm32f10x_gpio.o
    0x08001b1e   0x00000004   Code   RO          182    i.GPIO_ResetBits    stm32f10x_gpio.o
    0x08001b22   0x00000004   Code   RO          183    i.GPIO_SetBits      stm32f10x_gpio.o
    0x08001b26   0x00000002   PAD
    0x08001b28   0x0000001c   Code   RO         1891    i.Get_CollectCurrentVal  mainv1.o
    0x08001b44   0x0000003c   Code   RO         1892    i.Get_CollectTempval  mainv1.o
    0x08001b80   0x00000084   Code   RO         1893    i.Get_PowerValue    mainv1.o
    0x08001c04   0x00000084   Code   RO         1894    i.Get_RPowerValue   mainv1.o
    0x08001c88   0x00000002   Code   RO         2796    i.HardFault_Handler  stm32f10x_it.o
    0x08001c8a   0x00000002   PAD
    0x08001c8c   0x00000060   Code   RO         2596    i.I2CChkAck         pt2314.o
    0x08001cec   0x00000060   Code   RO         2674    i.I2CChkAck         qn8027_driver.o
    0x08001d4c   0x00000060   Code   RO         3159    i.I2CChkAck         24c32.o
    0x08001dac   0x0000007c   Code   RO         2675    i.I2CRead8Bit       qn8027_driver.o
    0x08001e28   0x00000070   Code   RO         3160    i.I2CRead8Bit       24c32.o
    0x08001e98   0x00000030   Code   RO         2676    i.I2CSlave_NOACK    qn8027_driver.o
    0x08001ec8   0x0000002c   Code   RO         3161    i.I2CSlave_NOACK    24c32.o
    0x08001ef4   0x00000040   Code   RO         2597    i.I2CStart          pt2314.o
    0x08001f34   0x00000040   Code   RO         2677    i.I2CStart          qn8027_driver.o
    0x08001f74   0x00000038   Code   RO         3162    i.I2CStart          24c32.o
    0x08001fac   0x00000030   Code   RO         2598    i.I2CStop           pt2314.o
    0x08001fdc   0x00000030   Code   RO         2678    i.I2CStop           qn8027_driver.o
    0x0800200c   0x0000002c   Code   RO         3163    i.I2CStop           24c32.o
    0x08002038   0x00000054   Code   RO         2599    i.I2CWrite8Bit      pt2314.o
    0x0800208c   0x00000054   Code   RO         2679    i.I2CWrite8Bit      qn8027_driver.o
    0x080020e0   0x0000004c   Code   RO         3164    i.I2CWrite8Bit      24c32.o
    0x0800212c   0x00000034   Code   RO         1895    i.InitTask          mainv1.o
    0x08002160   0x00000024   Code   RO         3036    i.KEY_DOWN_STATUS   anjian.o
    0x08002184   0x0000004c   Code   RO         3037    i.KEY_DOWN_delayct  anjian.o
    0x080021d0   0x00000028   Code   RO         3038    i.KEY_LEFT_STATUS   anjian.o
    0x080021f8   0x0000004c   Code   RO         3039    i.KEY_LEFT_delayct  anjian.o
    0x08002244   0x00000016   Code   RO         3040    i.KEY_MENU_STATUS   anjian.o
    0x0800225a   0x00000016   Code   RO         3041    i.KEY_OK_STATUS     anjian.o
    0x08002270   0x00000016   Code   RO         3042    i.KEY_RDS_STATUS    anjian.o
    0x08002286   0x00000002   PAD
    0x08002288   0x00000024   Code   RO         3043    i.KEY_RIGHT_STATUS  anjian.o
    0x080022ac   0x0000004c   Code   RO         3044    i.KEY_RIGHT_delayct  anjian.o
    0x080022f8   0x00000032   Code   RO         1896    i.KEY_Status_AllClear  mainv1.o
    0x0800232a   0x00000002   PAD
    0x0800232c   0x00000024   Code   RO         3045    i.KEY_UP_STATUS     anjian.o
    0x08002350   0x0000004c   Code   RO         3046    i.KEY_UP_delayct    anjian.o
    0x0800239c   0x0000011c   Code   RO         1897    i.KEY_config        mainv1.o
    0x080024b8   0x00000010   Code   RO         2356    i.LCD19264_BG_Open  lcd19264 driverv20.o
    0x080024c8   0x00000022   Code   RO         2357    i.LCD19264_Clear    lcd19264 driverv20.o
    0x080024ea   0x00000002   PAD
    0x080024ec   0x00000058   Code   RO         2358    i.LCD19264_DisChar  lcd19264 driverv20.o
    0x08002544   0x00000040   Code   RO         2361    i.LCD19264_DisOFF   lcd19264 driverv20.o
    0x08002584   0x00000040   Code   RO         2362    i.LCD19264_DisON    lcd19264 driverv20.o
    0x080025c4   0x00000020   Code   RO         2363    i.LCD19264_Display_String  lcd19264 driverv20.o
    0x080025e4   0x00000084   Code   RO         2366    i.LCD19264_Init     lcd19264 driverv20.o
    0x08002668   0x000000b8   Code   RO         2367    i.LCD19264_Posbyte  lcd19264 driverv20.o
    0x08002720   0x0000004c   Code   RO         2368    i.LCD19264_StartLine  lcd19264 driverv20.o
    0x0800276c   0x0000003c   Code   RO         2369    i.LCD_WriteCMD      lcd19264 driverv20.o
    0x080027a8   0x00000048   Code   RO         1898    i.LED_Blinking_task  mainv1.o
    0x080027f0   0x0000001a   Code   RO         3047    i.MP3_INPUT_STATUS  anjian.o
    0x0800280a   0x00000002   Code   RO         2797    i.MemManage_Handler  stm32f10x_it.o
    0x0800280c   0x00000002   Code   RO         2798    i.NMI_Handler       stm32f10x_it.o
    0x0800280e   0x00000070   Code   RO         1899    i.NVIC_Configuration  mainv1.o
    0x0800287e   0x0000005c   Code   RO           96    i.NVIC_Init         misc.o
    0x080028da   0x00000002   PAD
    0x080028dc   0x00000014   Code   RO           97    i.NVIC_PriorityGroupConfig  misc.o
    0x080028f0   0x0000010c   Code   RO         1900    i.PCRDS_Blinking_task  mainv1.o
    0x080029fc   0x0000009c   Code   RO         3229    i.PCRDS_set         app.o
    0x08002a98   0x00000050   Code   RO         3230    i.PS_Name_Save      app.o
    0x08002ae8   0x00000050   Code   RO         3231    i.PS_Name_Update    app.o
    0x08002b38   0x00000058   Code   RO         2600    i.PT2314_Init       pt2314.o
    0x08002b90   0x0000003e   Code   RO         2601    i.PT2314_SetNRegs   pt2314.o
    0x08002bce   0x0000002a   Code   RO         2602    i.PT2314_SetReg     pt2314.o
    0x08002bf8   0x00000018   Code   RO         2603    i.PT2314_Setup_Bass  pt2314.o
    0x08002c10   0x0000003c   Code   RO         2604    i.PT2314_Setup_CVD  pt2314.o
    0x08002c4c   0x00000018   Code   RO         2605    i.PT2314_Setup_Treble  pt2314.o
    0x08002c64   0x00000020   Code   RO         2606    i.PT2314_Setup_Volume  pt2314.o
    0x08002c84   0x0000000c   Code   RO         1268    i.PWR_BackupAccessCmd  stm32f10x_pwr.o
    0x08002c90   0x00000050   Code   RO         1901    i.Print_ZF_Table    mainv1.o
    0x08002ce0   0x0000001c   Code   RO         2680    i.QN8027_Delay      qn8027_driver.o
    0x08002cfc   0x000000b4   Code   RO         2681    i.QN8027_Init       qn8027_driver.o
    0x08002db0   0x00000050   Code   RO         2684    i.QN8027_ReadReg    qn8027_driver.o
    0x08002e00   0x00000040   Code   RO         2686    i.QN8027_WriteReg   qn8027_driver.o
    0x08002e40   0x0000002c   Code   RO         2687    i.QNd8027_SetChannel  qn8027_driver.o
    0x08002e6c   0x00000012   Code   RO         2689    i.QndMute           qn8027_driver.o
    0x08002e7e   0x00000014   Code   RO         2690    i.QndRdsMode        qn8027_driver.o
    0x08002e92   0x00000002   PAD
    0x08002e94   0x0000002c   Code   RO         2691    i.QndSetReg         qn8027_driver.o
    0x08002ec0   0x00000018   Code   RO          290    i.RCC_AHBPeriphClockCmd  stm32f10x_rcc.o
    0x08002ed8   0x00000018   Code   RO          291    i.RCC_APB1PeriphClockCmd  stm32f10x_rcc.o
    0x08002ef0   0x00000018   Code   RO          292    i.RCC_APB1PeriphResetCmd  stm32f10x_rcc.o
    0x08002f08   0x00000018   Code   RO          293    i.RCC_APB2PeriphClockCmd  stm32f10x_rcc.o
    0x08002f20   0x00000018   Code   RO          294    i.RCC_APB2PeriphResetCmd  stm32f10x_rcc.o
    0x08002f38   0x0000000c   Code   RO          296    i.RCC_BackupResetCmd  stm32f10x_rcc.o
    0x08002f44   0x00000098   Code   RO          301    i.RCC_GetClocksFreq  stm32f10x_rcc.o
    0x08002fdc   0x00000030   Code   RO          302    i.RCC_GetFlagStatus  stm32f10x_rcc.o
    0x0800300c   0x00000020   Code   RO          309    i.RCC_LSEConfig     stm32f10x_rcc.o
    0x0800302c   0x0000000c   Code   RO          316    i.RCC_RTCCLKCmd     stm32f10x_rcc.o
    0x08003038   0x00000010   Code   RO          317    i.RCC_RTCCLKConfig  stm32f10x_rcc.o
    0x08003048   0x00000014   Code   RO         3232    i.RDSData_Verify2   app.o
    0x0800305c   0x00000064   Code   RO         3233    i.RDS_DevicesGroup_Mode_Save  app.o
    0x080030c0   0x00000060   Code   RO         3234    i.RDS_DevicesGroup_Mode_Update  app.o
    0x08003120   0x0000008c   Code   RO         3235    i.RDS_task          app.o
    0x080031ac   0x00000070   Code   RO         3237    i.RDSsend_IDNum_task  app.o
    0x0800321c   0x00000040   Code   RO         3238    i.RDSsend_NULL      app.o
    0x0800325c   0x000000b4   Code   RO         3239    i.RDSsend_PS        app.o
    0x08003310   0x00000048   Code   RO         3241    i.RDSsend_Volume_task  app.o
    0x08003358   0x000000a8   Code   RO         3242    i.RDSsend_area_allset  app.o
    0x08003400   0x00000058   Code   RO         3243    i.RDSsend_pty       app.o
    0x08003458   0x00000118   Code   RO         3244    i.RDSsend_state     app.o
    0x08003570   0x000000a4   Code   RO         3245    i.RDSsend_txt       app.o
    0x08003614   0x00000024   Code   RO         3246    i.RDSsend_txt_task  app.o
    0x08003638   0x00000010   Code   RO         1329    i.RTC_ClearITPendingBit  stm32f10x_rtc.o
    0x08003648   0x00000058   Code   RO         1905    i.RTC_Configuration  mainv1.o
    0x080036a0   0x00000010   Code   RO         1330    i.RTC_EnterConfigMode  stm32f10x_rtc.o
    0x080036b0   0x00000010   Code   RO         1331    i.RTC_ExitConfigMode  stm32f10x_rtc.o
    0x080036c0   0x00000010   Code   RO         1332    i.RTC_GetCounter    stm32f10x_rtc.o
    0x080036d0   0x00000020   Code   RO         1335    i.RTC_GetITStatus   stm32f10x_rtc.o
    0x080036f0   0x00000088   Code   RO         2799    i.RTC_IRQHandler    stm32f10x_it.o
    0x08003778   0x0000001c   Code   RO         1336    i.RTC_ITConfig      stm32f10x_rtc.o
    0x08003794   0x0000001c   Code   RO         1338    i.RTC_SetCounter    stm32f10x_rtc.o
    0x080037b0   0x00000020   Code   RO         1339    i.RTC_SetPrescaler  stm32f10x_rtc.o
    0x080037d0   0x00000010   Code   RO         1340    i.RTC_WaitForLastTask  stm32f10x_rtc.o
    0x080037e0   0x0000001c   Code   RO         1341    i.RTC_WaitForSynchro  stm32f10x_rtc.o
    0x080037fc   0x0000005c   Code   RO         3247    i.Receive_areastate_int  app.o
    0x08003858   0x0000004c   Code   RO         3248    i.Receiveps_int     app.o
    0x080038a4   0x0000004c   Code   RO         3249    i.Receivetxt_int    app.o
    0x080038f0   0x00000590   Code   RO         1906    i.SET_Audio_And_Time  mainv1.o
    0x08003e80   0x00000244   Code   RO         1907    i.SET_FM_And_RF_Power  mainv1.o
    0x080040c4   0x000002b4   Code   RO         1908    i.SET_Temp_And_SWR  mainv1.o
    0x08004378   0x00000010   Code   RO         3250    i.SYS_PARAMETER_Save  app.o
    0x08004388   0x000000d4   Code   RO         3251    i.SYS_PARAMETER_Update  app.o
    0x0800445c   0x00000044   Code   RO         2370    i.SendByte          lcd19264 driverv20.o
    0x080044a0   0x00000094   Code   RO           10    i.SetSysClockTo72   system_stm32f10x.o
    0x08004534   0x00000014   Code   RO         2891    i.SetingWindos_DestroyFMchValue  show.o
    0x08004548   0x00000014   Code   RO         2892    i.SetingWindos_DestroyPowerValue  show.o
    0x0800455c   0x0000008c   Code   RO         2893    i.SetingWindos_ShowFMchValue  show.o
    0x080045e8   0x00000070   Code   RO         2894    i.SetingWindos_ShowPowerValue  show.o
    0x08004658   0x0000002a   Code   RO         1909    i.SetupSystemTime   mainv1.o
    0x08004682   0x00000002   PAD
    0x08004684   0x00000384   Code   RO         1910    i.Setup_Area_Name   mainv1.o
    0x08004a08   0x00000364   Code   RO         1911    i.Setup_PS_Name     mainv1.o
    0x08004d6c   0x0000044c   Code   RO         1912    i.Setup_RDSMode     mainv1.o
    0x080051b8   0x000003d4   Code   RO         1913    i.Setup_RDS_Window  mainv1.o
    0x0800558c   0x00000058   Code   RO         1914    i.Show_ALLSET_Area_Fullsetval  mainv1.o
    0x080055e4   0x0000008c   Code   RO         1915    i.Show_ALLSET_Area_Name  mainv1.o
    0x08005670   0x00000026   Code   RO         1916    i.Show_ALLSET_devgb  mainv1.o
    0x08005696   0x00000002   PAD
    0x08005698   0x0000005c   Code   RO         1917    i.Show_Area_Name    mainv1.o
    0x080056f4   0x00000064   Code   RO         1918    i.Show_DevStatus_Group  mainv1.o
    0x08005758   0x00000058   Code   RO         1919    i.Show_DevStatus_One  mainv1.o
    0x080057b0   0x0000005c   Code   RO         1920    i.Show_Device_hangnum  mainv1.o
    0x0800580c   0x00000098   Code   RO         2895    i.Show_FM           show.o
    0x080058a4   0x00000018   Code   RO         2896    i.Show_FSRF_Logo    show.o
    0x080058bc   0x00000068   Code   RO         2897    i.Show_I            show.o
    0x08005924   0x00000080   Code   RO         2898    i.Show_P            show.o
    0x080059a4   0x00000058   Code   RO         2899    i.Show_PEVal        show.o
    0x080059fc   0x00000044   Code   RO         1921    i.Show_PS_Name      mainv1.o
    0x08005a40   0x00000058   Code   RO         2900    i.Show_Picture      show.o
    0x08005a98   0x00000060   Code   RO         2901    i.Show_RDS          show.o
    0x08005af8   0x00000044   Code   RO         1922    i.Show_RDS_SetMode  mainv1.o
    0x08005b3c   0x00000018   Code   RO         2902    i.Show_RDS_logox    show.o
    0x08005b54   0x00000068   Code   RO         2903    i.Show_RP           show.o
    0x08005bbc   0x00000040   Code   RO         2904    i.Show_SWR          show.o
    0x08005bfc   0x00000054   Code   RO         2905    i.Show_T            show.o
    0x08005c50   0x00000040   Code   RO         2906    i.Show_TX           show.o
    0x08005c90   0x000000ac   Code   RO         2907    i.Show_Time         show.o
    0x08005d3c   0x000000f4   Code   RO         2908    i.Show_VOLB         show.o
    0x08005e30   0x000000f4   Code   RO         2909    i.Show_VOLH         show.o
    0x08005f24   0x00000040   Code   RO         2910    i.Show_Volume       show.o
    0x08005f64   0x00000050   Code   RO           12    i.SystemInit        system_stm32f10x.o
    0x08005fb4   0x00000032   Code   RO         1924    i.TBval_Change      mainv1.o
    0x08005fe6   0x00000002   PAD
    0x08005fe8   0x00000054   Code   RO         1925    i.TIM3Init          mainv1.o
    0x0800603c   0x00000058   Code   RO         2800    i.TIM3_IRQHandler   stm32f10x_it.o
    0x08006094   0x00000006   Code   RO          501    i.TIM_ClearITPendingBit  stm32f10x_tim.o
    0x0800609a   0x00000014   Code   RO          506    i.TIM_Cmd           stm32f10x_tim.o
    0x080060ae   0x00000002   PAD
    0x080060b0   0x00000170   Code   RO          511    i.TIM_DeInit        stm32f10x_tim.o
    0x08006220   0x00000010   Code   RO          531    i.TIM_ITConfig      stm32f10x_tim.o
    0x08006230   0x0000009c   Code   RO          577    i.TIM_TimeBaseInit  stm32f10x_tim.o
    0x080062cc   0x000000ec   Code   RO         2801    i.USART1_IRQHandler  stm32f10x_it.o
    0x080063b8   0x000000e4   Code   RO         2802    i.USART2_IRQHandler  stm32f10x_it.o
    0x0800649c   0x00000014   Code   RO         1032    i.USART_Cmd         stm32f10x_usart.o
    0x080064b0   0x0000003e   Code   RO         1036    i.USART_GetITStatus  stm32f10x_usart.o
    0x080064ee   0x00000030   Code   RO         1038    i.USART_ITConfig    stm32f10x_usart.o
    0x0800651e   0x00000002   PAD
    0x08006520   0x000000b4   Code   RO         1039    i.USART_Init        stm32f10x_usart.o
    0x080065d4   0x00000008   Code   RO         1046    i.USART_ReceiveData  stm32f10x_usart.o
    0x080065dc   0x00000008   Code   RO         1049    i.USART_SendData    stm32f10x_usart.o
    0x080065e4   0x00000038   Code   RO         1926    i.UpdateSystemTime  mainv1.o
    0x0800661c   0x00000002   Code   RO         2803    i.UsageFault_Handler  stm32f10x_it.o
    0x0800661e   0x00000008   Code   RO         2607    i.WaitUs            pt2314.o
    0x08006626   0x00000008   Code   RO         2692    i.WaitUs            qn8027_driver.o
    0x0800662e   0x00000008   Code   RO         3165    i.WaitUs            24c32.o
    0x08006636   0x00000002   PAD
    0x08006638   0x00000028   Code   RO         2371    i.WriteCommandL     lcd19264 driverv20.o
    0x08006660   0x00000028   Code   RO         2372    i.WriteCommandM     lcd19264 driverv20.o
    0x08006688   0x00000028   Code   RO         2373    i.WriteCommandR     lcd19264 driverv20.o
    0x080066b0   0x00000024   Code   RO         1795    i.__user_perthread_libspace  rtx_conf_cm.o
    0x080066d4   0x00000046   Code   RO         3882    i._init_box         RTX_CM3.LIB(rt_membox.o)
    0x0800671a   0x00000002   PAD
    0x0800671c   0x00000100   Code   RO         3467    i.adc_int           adc.o
    0x0800681c   0x00000060   Code   RO         3252    i.answer            app.o
    0x0800687c   0x00000044   Code   RO         1927    i.comdata_task      mainv1.o
    0x080068c0   0x00000030   Code   RO         3689    i.dbg_init          RTX_CM3.LIB(hal_cm3.o)
    0x080068f0   0x00000020   Code   RO         3690    i.dbg_task_notify   RTX_CM3.LIB(hal_cm3.o)
    0x08006910   0x00000010   Code   RO         3691    i.dbg_task_switch   RTX_CM3.LIB(hal_cm3.o)
    0x08006920   0x00000008   Code   RO         2374    i.delay             lcd19264 driverv20.o
    0x08006928   0x00000090   Code   RO         1929    i.filter_I          mainv1.o
    0x080069b8   0x00000090   Code   RO         1930    i.filter_p          mainv1.o
    0x08006a48   0x00000090   Code   RO         1931    i.filter_rp         mainv1.o
    0x08006ad8   0x0000007c   Code   RO         1932    i.filter_swr        mainv1.o
    0x08006b54   0x00000090   Code   RO         1933    i.filter_t          mainv1.o
    0x08006be4   0x00000090   Code   RO         1934    i.filter_vin        mainv1.o
    0x08006c74   0x00000078   Code   RO         1935    i.main              mainv1.o
    0x08006cec   0x00000a18   Code   RO         1936    i.main_task         mainv1.o
    0x08007704   0x0000002c   Code   RO         1799    i.os_error          rtx_conf_cm.o
    0x08007730   0x00000002   Code   RO         1800    i.os_idle_demon     rtx_conf_cm.o
    0x08007732   0x00000002   Code   RO         1801    i.os_tmr_call       rtx_conf_cm.o
    0x08007734   0x00000238   Code   RO         3253    i.protocol          app.o
    0x0800796c   0x0000003c   Code   RO         3254    i.ps_int            app.o
    0x080079a8   0x0000001c   Code   RO         3883    i.rt_alloc_box      RTX_CM3.LIB(rt_membox.o)
    0x080079c4   0x00000038   Code   RO         3496    i.rt_block          RTX_CM3.LIB(rt_task.o)
    0x080079fc   0x00000048   Code   RO         3860    i.rt_chk_robin      RTX_CM3.LIB(rt_robin.o)
    0x08007a44   0x00000084   Code   RO         3781    i.rt_dec_dly        RTX_CM3.LIB(rt_list.o)
    0x08007ac8   0x00000044   Code   RO         3497    i.rt_dispatch       RTX_CM3.LIB(rt_task.o)
    0x08007b0c   0x00000006   Code   RO         3637    i.rt_dly_wait       RTX_CM3.LIB(rt_time.o)
    0x08007b12   0x00000002   PAD
    0x08007b14   0x00000020   Code   RO         3592    i.rt_evt_clr        RTX_CM3.LIB(rt_event.o)
    0x08007b34   0x00000054   Code   RO         3594    i.rt_evt_psh        RTX_CM3.LIB(rt_event.o)
    0x08007b88   0x00000064   Code   RO         3595    i.rt_evt_set        RTX_CM3.LIB(rt_event.o)
    0x08007bec   0x00000044   Code   RO         3596    i.rt_evt_wait       RTX_CM3.LIB(rt_event.o)
    0x08007c30   0x00000020   Code   RO         3884    i.rt_free_box       RTX_CM3.LIB(rt_membox.o)
    0x08007c50   0x00000028   Code   RO         3782    i.rt_get_first      RTX_CM3.LIB(rt_list.o)
    0x08007c78   0x00000044   Code   RO         3498    i.rt_init_context   RTX_CM3.LIB(rt_task.o)
    0x08007cbc   0x00000018   Code   RO         3861    i.rt_init_robin     RTX_CM3.LIB(rt_robin.o)
    0x08007cd4   0x00000054   Code   RO         3692    i.rt_init_stack     RTX_CM3.LIB(hal_cm3.o)
    0x08007d28   0x000000c8   Code   RO         3918    i.rt_mbx_psh        RTX_CM3.LIB(rt_mailbox.o)
    0x08007df0   0x00000010   Code   RO         3664    i.rt_mut_init       RTX_CM3.LIB(rt_mutex.o)
    0x08007e00   0x000000ac   Code   RO         3665    i.rt_mut_release    RTX_CM3.LIB(rt_mutex.o)
    0x08007eac   0x00000068   Code   RO         3666    i.rt_mut_wait       RTX_CM3.LIB(rt_mutex.o)
    0x08007f14   0x00000084   Code   RO         3730    i.rt_pop_req        RTX_CM3.LIB(rt_system.o)
    0x08007f98   0x00000058   Code   RO         3785    i.rt_put_dly        RTX_CM3.LIB(rt_list.o)
    0x08007ff0   0x00000036   Code   RO         3786    i.rt_put_prio       RTX_CM3.LIB(rt_list.o)
    0x08008026   0x00000002   PAD
    0x08008028   0x00000014   Code   RO         3787    i.rt_put_rdy_first  RTX_CM3.LIB(rt_list.o)
    0x0800803c   0x00000034   Code   RO         3788    i.rt_resort_prio    RTX_CM3.LIB(rt_list.o)
    0x08008070   0x0000002c   Code   RO         3789    i.rt_rmv_dly        RTX_CM3.LIB(rt_list.o)
    0x0800809c   0x00000030   Code   RO         3790    i.rt_rmv_list       RTX_CM3.LIB(rt_list.o)
    0x080080cc   0x00000034   Code   RO         3964    i.rt_sem_psh        RTX_CM3.LIB(rt_semaphore.o)
    0x08008100   0x00000002   Code   RO         1802    i.rt_stk_check      rtx_conf_cm.o
    0x08008102   0x00000002   PAD
    0x08008104   0x00000028   Code   RO         3499    i.rt_switch_req     RTX_CM3.LIB(rt_task.o)
    0x0800812c   0x00000128   Code   RO         3500    i.rt_sys_init       RTX_CM3.LIB(rt_task.o)
    0x08008254   0x0000003c   Code   RO         3733    i.rt_systick        RTX_CM3.LIB(rt_system.o)
    0x08008290   0x00000040   Code   RO         4000    i.rt_tmr_tick       RTX_CM3.LIB(rt_timer.o)
    0x080082d0   0x00000090   Code   RO         3501    i.rt_tsk_create     RTX_CM3.LIB(rt_task.o)
    0x08008360   0x000000ac   Code   RO         3502    i.rt_tsk_delete     RTX_CM3.LIB(rt_task.o)
    0x0800840c   0x00000010   Code   RO         3505    i.rt_tsk_self       RTX_CM3.LIB(rt_task.o)
    0x0800841c   0x00000164   Code   RO         3255    i.send_pdata        app.o
    0x08008580   0x00000022   Code   RO         3256    i.toggle            app.o
    0x080085a2   0x00000020   Code   RO         3257    i.turn              app.o
    0x080085c2   0x00000002   PAD
    0x080085c4   0x00000038   Code   RO         3258    i.txt_int           app.o
    0x080085fc   0x0000002c   Code   RO         4156    locale$$code        c_w.l(lc_ctype_c.o)
    0x08008628   0x00000062   Code   RO         4046    x$fpl$d2f           fz_ws.l(d2f.o)
    0x0800868a   0x00000002   PAD
    0x0800868c   0x000002b0   Code   RO         4049    x$fpl$ddiv          fz_ws.l(ddiv.o)
    0x0800893c   0x00000026   Code   RO         4052    x$fpl$dfltu         fz_ws.l(dflt_clz.o)
    0x08008962   0x0000009c   Code   RO         4092    x$fpl$dnaninf       fz_ws.l(dnaninf.o)
    0x080089fe   0x0000000c   Code   RO         4094    x$fpl$dretinf       fz_ws.l(dretinf.o)
    0x08008a0a   0x00000002   PAD
    0x08008a0c   0x000000c4   Code   RO         4058    x$fpl$fadd          fz_ws.l(faddsub_clz.o)
    0x08008ad0   0x0000000c   Code   RO         4096    x$fpl$fcheck1       fz_ws.l(fcheck1.o)
    0x08008adc   0x00000018   Code   RO         4127    x$fpl$fcmpinf       fz_ws.l(fcmpi.o)
    0x08008af4   0x00000184   Code   RO         4065    x$fpl$fdiv          fz_ws.l(fdiv.o)
    0x08008c78   0x0000003e   Code   RO         4068    x$fpl$ffixu         fz_ws.l(ffixu.o)
    0x08008cb6   0x00000002   PAD
    0x08008cb8   0x00000026   Code   RO         4072    x$fpl$ffltu         fz_ws.l(fflt_clz.o)
    0x08008cde   0x00000002   PAD
    0x08008ce0   0x00000068   Code   RO         4098    x$fpl$fleqf         fz_ws.l(fleqf.o)
    0x08008d48   0x00000102   Code   RO         4078    x$fpl$fmul          fz_ws.l(fmul.o)
    0x08008e4a   0x0000008c   Code   RO         4100    x$fpl$fnaninf       fz_ws.l(fnaninf.o)
    0x08008ed6   0x0000000e   Code   RO         4199    x$fpl$fpinit        fz_ws.l(fpinit.o)
    0x08008ee4   0x0000000a   Code   RO         4102    x$fpl$fretinf       fz_ws.l(fretinf.o)
    0x08008eee   0x00000062   Code   RO         4080    x$fpl$frleqf        fz_ws.l(frleqf.o)
    0x08008f50   0x000000ea   Code   RO         4060    x$fpl$fsub          fz_ws.l(faddsub_clz.o)
    0x0800903a   0x00000064   Code   RO         4129    x$fpl$retnan        fz_ws.l(retnan.o)
    0x0800909e   0x00000050   Code   RO         4082    x$fpl$scalbnf       fz_ws.l(scalbnf.o)
    0x080090ee   0x00000030   Code   RO         4144    x$fpl$trapveneer    fz_ws.l(trapv.o)
    0x0800911e   0x00000000   Code   RO         4104    x$fpl$usenofp       fz_ws.l(usenofp.o)
    0x0800911e   0x00000002   Data   RO         1808    .constdata          rtx_conf_cm.o
    0x08009120   0x00000004   Data   RO         1809    .constdata          rtx_conf_cm.o
    0x08009124   0x00000004   Data   RO         1810    .constdata          rtx_conf_cm.o
    0x08009128   0x00000004   Data   RO         1811    .constdata          rtx_conf_cm.o
    0x0800912c   0x00000001   Data   RO         1812    .constdata          rtx_conf_cm.o
    0x0800912d   0x00000003   PAD
    0x08009130   0x00000008   Data   RO         1813    .constdata          rtx_conf_cm.o
    0x08009138   0x00000002   Data   RO         1814    .constdata          rtx_conf_cm.o
    0x0800913a   0x00000002   PAD
    0x0800913c   0x00000004   Data   RO         1815    .constdata          rtx_conf_cm.o
    0x08009140   0x00000001   Data   RO         1816    .constdata          rtx_conf_cm.o
    0x08009141   0x00000001   PAD
    0x08009142   0x00000002   Data   RO         1817    .constdata          rtx_conf_cm.o
    0x08009144   0x00000068   Data   RO         1940    .constdata          mainv1.o
    0x080091ac   0x00000818   Data   RO         2375    .constdata          lcd19264 driverv20.o
    0x080099c4   0x00000300   Data   RO         2502    .constdata          drawpicture.o
    0x08009cc4   0x00000170   Data   RO         2911    .constdata          show.o
    0x08009e34   0x00000008   Data   RO         2912    .constdata          show.o
    0x08009e3c   0x00000008   Data   RO         2913    .constdata          show.o
    0x08009e44   0x00000008   Data   RO         2914    .constdata          show.o
    0x08009e4c   0x00000008   Data   RO         2915    .constdata          show.o
    0x08009e54   0x00000008   Data   RO         2916    .constdata          show.o
    0x08009e5c   0x00000008   Data   RO         2917    .constdata          show.o
    0x08009e64   0x00000008   Data   RO         2918    .constdata          show.o
    0x08009e6c   0x0000000b   Data   RO         2919    .constdata          show.o
    0x08009e77   0x0000000b   Data   RO         2920    .constdata          show.o
    0x08009e82   0x0000000b   Data   RO         2921    .constdata          show.o
    0x08009e8d   0x0000000b   Data   RO         2922    .constdata          show.o
    0x08009e98   0x0000001a   Data   RO         2923    .constdata          show.o
    0x08009eb2   0x00000002   PAD
    0x08009eb4   0x00000020   Data   RO         4284    Region$$Table       anon$$obj.o
    0x08009ed4   0x00000110   Data   RO         4155    locale$$data        c_w.l(lc_ctype_c.o)


    Execution Region RW_IRAM1 (Base: 0x20000000, Size: 0x000052f8, Max: 0x00010000, ABSOLUTE, COMPRESSED[0x0000004c])

    Base Addr    Size         Type   Attr      Idx    E Section Name        Object

    0x20000000   0x00000014   Data   RW          321    .data               stm32f10x_rcc.o
    0x20000014   0x00000004   Data   RW         1818    .data               rtx_conf_cm.o
    0x20000018   0x00000144   Data   RW         1942    .data               mainv1.o
    0x2000015c   0x00000001   Data   RW         1943    .data               mainv1.o
    0x2000015d   0x00000001   Data   RW         1944    .data               mainv1.o
    0x2000015e   0x00000001   Data   RW         1945    .data               mainv1.o
    0x2000015f   0x00000001   Data   RW         1946    .data               mainv1.o
    0x20000160   0x00000001   Data   RW         1947    .data               mainv1.o
    0x20000161   0x00000001   PAD
    0x20000162   0x00000002   Data   RW         1949    .data               mainv1.o
    0x20000164   0x00000001   Data   RW         1952    .data               mainv1.o
    0x20000165   0x00000001   Data   RW         1953    .data               mainv1.o
    0x20000166   0x00000001   Data   RW         1954    .data               mainv1.o
    0x20000167   0x00000001   Data   RW         1955    .data               mainv1.o
    0x20000168   0x00000001   Data   RW         1956    .data               mainv1.o
    0x20000169   0x00000001   Data   RW         1957    .data               mainv1.o
    0x2000016a   0x00000001   Data   RW         1958    .data               mainv1.o
    0x2000016b   0x00000001   Data   RW         1959    .data               mainv1.o
    0x2000016c   0x00000001   Data   RW         1960    .data               mainv1.o
    0x2000016d   0x00000001   Data   RW         1961    .data               mainv1.o
    0x2000016e   0x00000002   Data   RW         1962    .data               mainv1.o
    0x20000170   0x00000004   Data   RW         1964    .data               mainv1.o
    0x20000174   0x00000001   Data   RW         2608    .data               pt2314.o
    0x20000175   0x00000003   Data   RW         2693    .data               qn8027_driver.o
    0x20000178   0x00000018   Data   RW         3049    .data               anjian.o
    0x20000190   0x00000001   Data   RW         3166    .data               24c32.o
    0x20000191   0x00000003   PAD
    0x20000194   0x00000064   Data   RW         3263    .data               app.o
    0x200001f8   0x00000001   Data   RW         3268    .data               app.o
    0x200001f9   0x00000003   PAD
    0x200001fc   0x00000008   Data   RW         3507    .data               RTX_CM3.LIB(rt_task.o)
    0x20000204   0x00000002   Data   RW         3640    .data               RTX_CM3.LIB(rt_time.o)
    0x20000206   0x00000001   Data   RW         3693    .data               RTX_CM3.LIB(hal_cm3.o)
    0x20000207   0x00000002   Data   RW         3736    .data               RTX_CM3.LIB(rt_system.o)
    0x20000209   0x00000003   PAD
    0x2000020c   0x00000008   Data   RW         3862    .data               RTX_CM3.LIB(rt_robin.o)
    0x20000214   0x00000008   Data   RW         4001    .data               RTX_CM3.LIB(rt_timer.o)
    0x2000021c   0x0000024c   Zero   RW         1803    .bss                rtx_conf_cm.o
    0x20000468   0x000032d8   Zero   RW         1804    .bss                rtx_conf_cm.o
    0x20003740   0x00000104   Zero   RW         1805    .bss                rtx_conf_cm.o
    0x20003844   0x00000030   Zero   RW         1806    .bss                rtx_conf_cm.o
    0x20003874   0x000004e0   Zero   RW         1807    .bss                rtx_conf_cm.o
    0x20003d54   0x00000004   PAD
    0x20003d58   0x00000656   Zero   RW         1937    .bss                mainv1.o
    0x200043ae   0x00000020   Zero   RW         1938    .bss                mainv1.o
    0x200043ce   0x00000020   Zero   RW         1939    .bss                mainv1.o
    0x200043ee   0x00000600   Zero   RW         2501    .bss                drawpicture.o
    0x200049ee   0x00000002   PAD
    0x200049f0   0x000001f8   Zero   RW         3259    .bss                app.o
    0x20004be8   0x0000004a   Zero   RW         3469    .bss                adc.o
    0x20004c32   0x00000002   PAD
    0x20004c34   0x00000030   Zero   RW         3506    .bss                RTX_CM3.LIB(rt_task.o)
    0x20004c64   0x00000030   Zero   RW         3791    .bss                RTX_CM3.LIB(rt_list.o)
    0x20004c94   0x00000060   Zero   RW         4028    .bss                c_w.l(libspace.o)
    0x20004cf4   0x00000004   PAD
    0x20004cf8   0x00000200   Zero   RW            2    HEAP                startup_stm32f10x_md.o
    0x20004ef8   0x00000400   Zero   RW            1    STACK               startup_stm32f10x_md.o


==============================================================================

Image component sizes


      Code (inc. data)   RO Data    RW Data    ZI Data      Debug   Object Name

       712         44          0          1          0       5379   24c32.o
       284         18          0          0         74       1899   adc.o
       570         64          0         24          0       6513   anjian.o
      3854        550          0        101        504      24641   app.o
       192         10          0          0          0       2215   dac5615.o
       978         42        768          0       1536      10042   drawpicture.o
       946         94       2072          0          0      10902   lcd19264 driverv20.o
     13698       1442        104        347       1686     293159   mainv1.o
       112         10          0          0          0      12603   misc.o
       632         56          0          1          0       7211   pt2314.o
       950         56          0          3          0       8685   qn8027_driver.o
        86         14         32          4      15160       8358   rtx_conf_cm.o
      2036        234        494          0          0      11333   show.o
        64         26        236          0       1536        960   startup_stm32f10x_md.o
       296         10          0          0          0      17473   stm32f10x_adc.o
        42         12          0          0          0       2912   stm32f10x_bkp.o
       316          8          0          0          0      13958   stm32f10x_dma.o
       164         14          0          0          0       4926   stm32f10x_exti.o
       218          6          0          0          0      13394   stm32f10x_gpio.o
       700        134          0          0          0     206768   stm32f10x_it.o
        12          6          0          0          0        574   stm32f10x_pwr.o
       392         78          0         20          0      18796   stm32f10x_rcc.o
       228         46          0          0          0       6506   stm32f10x_rtc.o
       566        106          0          0          0      25868   stm32f10x_tim.o
       326          4          0          0          0      12559   stm32f10x_usart.o
       228         26          0          0          0     241401   system_stm32f10x.o

    ----------------------------------------------------------------------
     28648       3110       3746        508      20504     969035   Object Totals
         0          0         32          0          0          0   (incl. Generated)
        46          0          8          7          8          0   (incl. Padding)

    ----------------------------------------------------------------------

      Code (inc. data)   RO Data    RW Data    ZI Data      Debug   Library Member Name

         4          4          0          0          0        136   SVC_Table.o
       512         66          0          1          0       2541   hal_cm3.o
       284         20          0          0          0       2321   rt_event.o
       478         28          0          0         48       4346   rt_list.o
       200          4          0          0          0        741   rt_mailbox.o
       130          0          0          0          0       1705   rt_membox.o
       292         14          0          0          0       1753   rt_mutex.o
        96         24          0          8          0        954   rt_robin.o
        52          6          0          0          0        513   rt_semaphore.o
       192         30          0          2          0       1146   rt_system.o
       860        162          0          8         48       6822   rt_task.o
         6          0          0          2          0        528   rt_time.o
        64          8          0          8          0        603   rt_timer.o
        60          8          0          0          0         84   __0sscanf.o
        90          0          0          0          0          0   __dczerorl2.o
         8          0          0          0          0         68   __main.o
        52          8          0          0          0          0   __scatter.o
        28          0          0          0          0          0   __scatter_zi.o
       904          4          0          0          0        100   _scanf.o
       222          0          0          0          0         96   _scanf_str.o
        64          0          0          0          0         84   _sgetc.o
        16          0          0          0          0         68   aeabi_memset.o
        12          0          0          0          0         68   exit.o
         6          0          0          0          0        152   heapauxi.o
        18          0          0          0          0         76   isspace.o
        44         10        272          0          0         76   lc_ctype_c.o
         6          0          0          0          0          0   libinit.o
        20          0          0          0          0          0   libinit2.o
         2          0          0          0          0          0   libshutdown.o
         2          0          0          0          0          0   libshutdown2.o
         8          4          0          0         96         68   libspace.o
        16          4          0          0          0         76   rt_ctype_table.o
        10          0          0          0          0         76   rt_fp_status_addr_twolibspace.o
        10          0          0          0          0         76   rt_locale_twolibspace.o
        68          0          0          0          0         68   rt_memclr.o
        78          0          0          0          0         80   rt_memclr_w.o
       138          0          0          0          0         68   rt_memcpy_v6.o
       100          0          0          0          0         80   rt_memcpy_w.o
         0          0          0          0          0          0   rtentry.o
        12          0          0          0          0          0   rtentry2.o
         6          0          0          0          0          0   rtentry4.o
         2          0          0          0          0          0   rtexit.o
        10          0          0          0          0          0   rtexit2.o
        48         10          0          0          0         84   scanf_char.o
       128          0          0          0          0         68   strcmpv7m.o
        12          4          0          0          0         68   sys_exit.o
        74          0          0          0          0         80   sys_stackheap_outer.o
         2          0          0          0          0         68   use_no_semi.o
        98          4          0          0          0         92   d2f.o
       688        140          0          0          0        212   ddiv.o
        38          0          0          0          0         68   dflt_clz.o
       156          4          0          0          0         92   dnaninf.o
        12          0          0          0          0         68   dretinf.o
       430          8          0          0          0        168   faddsub_clz.o
        12          4          0          0          0         68   fcheck1.o
        24          0          0          0          0         68   fcmpi.o
       388         76          0          0          0         96   fdiv.o
        62          4          0          0          0         84   ffixu.o
        38          0          0          0          0         68   fflt_clz.o
       104          4          0          0          0         84   fleqf.o
       258          4          0          0          0         84   fmul.o
       140          4          0          0          0         84   fnaninf.o
        14          0          0          0          0         76   fpinit.o
        10          0          0          0          0         68   fretinf.o
        98          0          0          0          0         68   frleqf.o
       100          0          0          0          0         68   retnan.o
        80          0          0          0          0         68   scalbnf.o
        48          0          0          0          0         68   trapv.o
         0          0          0          0          0          0   usenofp.o

    ----------------------------------------------------------------------
      8266        670        272         32        196      27693   Library Totals
        22          0          0          3          4          0   (incl. Padding)

    ----------------------------------------------------------------------

      Code (inc. data)   RO Data    RW Data    ZI Data      Debug   Library Name

      3170        366          0         29         96      24109   RTX_CM3.LIB
      2276         52        272          0         96       1832   c_w.l
      2798        252          0          0          0       1752   fz_ws.l

    ----------------------------------------------------------------------
      8266        670        272         32        196      27693   Library Totals

    ----------------------------------------------------------------------

==============================================================================


      Code (inc. data)   RO Data    RW Data    ZI Data      Debug   

     36914       3780       4018        540      20700     978892   Grand Totals
     36914       3780       4018         76      20700     978892   ELF Image Totals (compressed)
     36914       3780       4018         76          0          0   ROM Totals

==============================================================================

    Total RO  Size (Code + RO Data)                40932 (  39.97kB)
    Total RW  Size (RW Data + ZI Data)             21240 (  20.74kB)
    Total ROM Size (Code + RO Data + RW Data)      41008 (  40.05kB)

==============================================================================

